libffado.so.2:_Z12quadlet2charjPh
libffado.so.2:_Z12rme_shm_lockP9rme_shm_t
libffado.so.2:_Z12rme_shm_openNSt7__cxx1112basic_stringIcSt11char_traitsIcESaIcEEEPP9rme_shm_t
libffado.so.2:_Z13rme_shm_closeP9rme_shm_t
libffado.so.2:_Z14rme_shm_unlockP9rme_shm_t
libffado.so.2:_Z15hexDumpQuadletsPjj
libffado.so.2:_Z28ffado_streaming_stream_onoffP13_ffado_deviceiiN9Streaming4Port11E_DirectionE
libffado.so.2:_Z7hexDumpPhj
libffado.so.2:_Z7toAsciih
libffado.so.2:_Z8tokenizeRKNSt7__cxx1112basic_stringIcSt11char_traitsIcESaIcEEERSt6vectorIS4_SaIS4_EES6_
libffado.so.2:_ZN10GenericAVC6Device10showDeviceEv
libffado.so.2:_ZN10GenericAVC6Device11deserializeENSt7__cxx1112basic_stringIcSt11char_traitsIcESaIcEEERN4Util13IODeserializeE
libffado.so.2:_ZN10GenericAVC6Device12createDeviceER13DeviceManagerSt10shared_ptrI9ConfigRomE
libffado.so.2:_ZN10GenericAVC6Device14getStreamCountEv
libffado.so.2:_ZN10GenericAVC6Device15discoverGenericEv
libffado.so.2:_ZN10GenericAVC6Device15setVerboseLevelEi
libffado.so.2:_ZN10GenericAVC6Device17getStreamingStateEv
libffado.so.2:_ZN10GenericAVC6Device17stopStreamByIndexEi
libffado.so.2:_ZN10GenericAVC6Device18addPlugToProcessorERN3AVC4PlugEPN9Streaming15StreamProcessorENS4_4Port11E_DirectionE
libffado.so.2:_ZN10GenericAVC6Device18startStreamByIndexEi
libffado.so.2:_ZN10GenericAVC6Device20getActiveClockSourceEv
libffado.so.2:_ZN10GenericAVC6Device20getSamplingFrequencyEv
libffado.so.2:_ZN10GenericAVC6Device20setActiveClockSourceEN11FFADODevice11ClockSourceE
libffado.so.2:_ZN10GenericAVC6Device20setSamplingFrequencyEi
libffado.so.2:_ZN10GenericAVC6Device21syncInfoToClockSourceERKN3AVC4Unit8SyncInfoE
libffado.so.2:_ZN10GenericAVC6Device24getSupportedClockSourcesEv
libffado.so.2:_ZN10GenericAVC6Device25getStreamProcessorByIndexEi
libffado.so.2:_ZN10GenericAVC6Device25supportsSamplingFrequencyEi
libffado.so.2:_ZN10GenericAVC6Device31getSupportedSamplingFrequenciesEv
libffado.so.2:_ZN10GenericAVC6Device4lockEv
libffado.so.2:_ZN10GenericAVC6Device5probeERN4Util13ConfigurationER9ConfigRomb
libffado.so.2:_ZN10GenericAVC6Device6unlockEv
libffado.so.2:_ZN10GenericAVC6Device7prepareEv
libffado.so.2:_ZN10GenericAVC6Device8discoverEv
libffado.so.2:_ZN10GenericAVC6DeviceC1ER13DeviceManagerSt10shared_ptrI9ConfigRomE
libffado.so.2:_ZN10GenericAVC6DeviceC2ER13DeviceManagerSt10shared_ptrI9ConfigRomE
libffado.so.2:_ZN10GenericAVC6DeviceD0Ev
libffado.so.2:_ZN10GenericAVC6DeviceD1Ev
libffado.so.2:_ZN10GenericAVC6DeviceD2Ev
libffado.so.2:_ZN10GenericAVC7Stanton9ScsDevice10showDeviceEv
libffado.so.2:_ZN10GenericAVC7Stanton9ScsDevice12readRegBlockEmPjmm
libffado.so.2:_ZN10GenericAVC7Stanton9ScsDevice13writeRegBlockEmPjmm
libffado.so.2:_ZN10GenericAVC7Stanton9ScsDevice14HSS1394Handler10handleLockEP19raw1394_arm_request
libffado.so.2:_ZN10GenericAVC7Stanton9ScsDevice14HSS1394Handler10handleReadEP19raw1394_arm_request
libffado.so.2:_ZN10GenericAVC7Stanton9ScsDevice14HSS1394Handler11handleWriteEP19raw1394_arm_request
libffado.so.2:_ZN10GenericAVC7Stanton9ScsDevice14HSS1394Handler17addMessageHandlerENS1_12eMessageTypeEPNS2_14MessageFunctorE
libffado.so.2:_ZN10GenericAVC7Stanton9ScsDevice14HSS1394Handler17byteToMessageTypeEh
libffado.so.2:_ZN10GenericAVC7Stanton9ScsDevice14HSS1394Handler20removeMessageHandlerENS1_12eMessageTypeEPNS2_14MessageFunctorE
libffado.so.2:_ZN10GenericAVC7Stanton9ScsDevice14HSS1394HandlerC1ERNS_6DeviceEm
libffado.so.2:_ZN10GenericAVC7Stanton9ScsDevice14HSS1394HandlerC2ERNS_6DeviceEm
libffado.so.2:_ZN10GenericAVC7Stanton9ScsDevice14HSS1394HandlerD0Ev
libffado.so.2:_ZN10GenericAVC7Stanton9ScsDevice14HSS1394HandlerD1Ev
libffado.so.2:_ZN10GenericAVC7Stanton9ScsDevice14HSS1394HandlerD2Ev
libffado.so.2:_ZN10GenericAVC7Stanton9ScsDevice18initMessageHandlerEv
libffado.so.2:_ZN10GenericAVC7Stanton9ScsDevice19writeHSS1394MessageENS1_12eMessageTypeEPhm
libffado.so.2:_ZN10GenericAVC7Stanton9ScsDevice8discoverEv
libffado.so.2:_ZN10GenericAVC7Stanton9ScsDeviceC1ER13DeviceManagerSt10shared_ptrI9ConfigRomE
libffado.so.2:_ZN10GenericAVC7Stanton9ScsDeviceC2ER13DeviceManagerSt10shared_ptrI9ConfigRomE
libffado.so.2:_ZN10GenericAVC7Stanton9ScsDeviceD0Ev
libffado.so.2:_ZN10GenericAVC7Stanton9ScsDeviceD1Ev
libffado.so.2:_ZN10GenericAVC7Stanton9ScsDeviceD2Ev
libffado.so.2:_ZN11DebugModuleC1ENSt7__cxx1112basic_stringIcSt11char_traitsIcESaIcEEEs
libffado.so.2:_ZN11DebugModuleC2ENSt7__cxx1112basic_stringIcSt11char_traitsIcESaIcEEEs
libffado.so.2:_ZN11DebugModuleD0Ev
libffado.so.2:_ZN11DebugModuleD1Ev
libffado.so.2:_ZN11DebugModuleD2Ev
libffado.so.2:_ZN11FFADODevice10showDeviceEv
libffado.so.2:_ZN11FFADODevice11compareGUIDEPS_S0_
libffado.so.2:_ZN11FFADODevice11getNicknameB5cxx11Ev
libffado.so.2:_ZN11FFADODevice11setNicknameENSt7__cxx1112basic_stringIcSt11char_traitsIcESaIcEEE
libffado.so.2:_ZN11FFADODevice12createDeviceESt10shared_ptrI9ConfigRomE
libffado.so.2:_ZN11FFADODevice12getSyncStateEv
libffado.so.2:_ZN11FFADODevice13loadFromCacheEv
libffado.so.2:_ZN11FFADODevice14get1394ServiceEv
libffado.so.2:_ZN11FFADODevice14handleBusResetEv
libffado.so.2:_ZN11FFADODevice15enableStreamingEv
libffado.so.2:_ZN11FFADODevice15setVerboseLevelEi
libffado.so.2:_ZN11FFADODevice16disableStreamingEv
libffado.so.2:_ZN11FFADODevice16needsRediscoveryEv
libffado.so.2:_ZN11FFADODevice17canChangeNicknameEv
libffado.so.2:_ZN11FFADODevice17getStreamingStateEv
libffado.so.2:_ZN11FFADODevice23ClockSourceTypeToStringENS_16eClockSourceTypeE
libffado.so.2:_ZN11FFADODevice7getNameB5cxx11Ev
libffado.so.2:_ZN11FFADODevice9getNodeIdEv
libffado.so.2:_ZN11FFADODevice9saveCacheEv
libffado.so.2:_ZN11FFADODeviceC1ER13DeviceManagerSt10shared_ptrI9ConfigRomE
libffado.so.2:_ZN11FFADODeviceC2ER13DeviceManagerSt10shared_ptrI9ConfigRomE
libffado.so.2:_ZN11FFADODeviceD0Ev
libffado.so.2:_ZN11FFADODeviceD1Ev
libffado.so.2:_ZN11FFADODeviceD2Ev
libffado.so.2:_ZN13DeviceManager10initializeEv
libffado.so.2:_ZN13DeviceManager11getAvDeviceEi
libffado.so.2:_ZN13DeviceManager11isValidNodeEi
libffado.so.2:_ZN13DeviceManager12deinitializeEv
libffado.so.2:_ZN13DeviceManager12getNbDevicesEv
libffado.so.2:_ZN13DeviceManager13addSpecStringEPc
libffado.so.2:_ZN13DeviceManager13getSyncSourceEv
libffado.so.2:_ZN13DeviceManager13initStreamingEv
libffado.so.2:_ZN13DeviceManager13setPeriodSizeEj
libffado.so.2:_ZN13DeviceManager13stopStreamingEv
libffado.so.2:_ZN13DeviceManager13waitForPeriodEv
libffado.so.2:_ZN13DeviceManager14getSlaveDriverESt10shared_ptrI9ConfigRomE
libffado.so.2:_ZN13DeviceManager14resetStreamingEv
libffado.so.2:_ZN13DeviceManager14showDeviceInfoEv
libffado.so.2:_ZN13DeviceManager14startStreamingEv
libffado.so.2:_ZN13DeviceManager15busresetHandlerER15Ieee1394Service
libffado.so.2:_ZN13DeviceManager15finishStreamingEv
libffado.so.2:_ZN13DeviceManager15getDeviceNodeIdEi
libffado.so.2:_ZN13DeviceManager15setVerboseLevelEi
libffado.so.2:_ZN13DeviceManager15signalNotifiersERSt6vectorIPN4Util7FunctorESaIS3_EE
libffado.so.2:_ZN13DeviceManager16getAvDeviceCountEv
libffado.so.2:_ZN13DeviceManager16prepareStreamingEv
libffado.so.2:_ZN13DeviceManager17isSpecStringValidENSt7__cxx1112basic_stringIcSt11char_traitsIcESaIcEEE
libffado.so.2:_ZN13DeviceManager17showStreamingInfoEv
libffado.so.2:_ZN13DeviceManager18getAvDeviceByIndexEi
libffado.so.2:_ZN13DeviceManager18getDriverForDeviceEP9ConfigRomi
libffado.so.2:_ZN13DeviceManager18setStreamingParamsEjjj
libffado.so.2:_ZN13DeviceManager19setThreadParametersEbi
libffado.so.2:_ZN13DeviceManager20getDriverForDeviceDoEP9ConfigRomib
libffado.so.2:_ZN13DeviceManager20registerNotificationERSt6vectorIPN4Util7FunctorESaIS3_EES3_
libffado.so.2:_ZN13DeviceManager21stopStreamingOnDeviceEP11FFADODevice
libffado.so.2:_ZN13DeviceManager22startStreamingOnDeviceEP11FFADODevice
libffado.so.2:_ZN13DeviceManager22unregisterNotificationERSt6vectorIPN4Util7FunctorESaIS3_EES3_
libffado.so.2:_ZN13DeviceManager8discoverEbb
libffado.so.2:_ZN13DeviceManagerC1Ev
libffado.so.2:_ZN13DeviceManagerC2Ev
libffado.so.2:_ZN13DeviceManagerD0Ev
libffado.so.2:_ZN13DeviceManagerD1Ev
libffado.so.2:_ZN13DeviceManagerD2Ev
libffado.so.2:_ZN15Ieee1394Service10ARMHandler10handleLockEP19raw1394_arm_request
libffado.so.2:_ZN15Ieee1394Service10ARMHandler10handleReadEP19raw1394_arm_request
libffado.so.2:_ZN15Ieee1394Service10ARMHandler11handleWriteEP19raw1394_arm_request
libffado.so.2:_ZN15Ieee1394Service10ARMHandler12printRequestEP19raw1394_arm_request
libffado.so.2:_ZN15Ieee1394Service10ARMHandlerC1ERS_mmjjj
libffado.so.2:_ZN15Ieee1394Service10ARMHandlerC2ERS_mmjjj
libffado.so.2:_ZN15Ieee1394Service10ARMHandlerD0Ev
libffado.so.2:_ZN15Ieee1394Service10ARMHandlerD1Ev
libffado.so.2:_ZN15Ieee1394Service10ARMHandlerD2Ev
libffado.so.2:_ZN15Ieee1394Service10armHandlerEmhjPv
libffado.so.2:_ZN15Ieee1394Service10doBusResetEv
libffado.so.2:_ZN15Ieee1394Service10initializeEi
libffado.so.2:_ZN15Ieee1394Service10readNoLockEtmmPj
libffado.so.2:_ZN15Ieee1394Service11read_octletEtmPm
libffado.so.2:_ZN15Ieee1394Service11writeNoLockEtmmPj
libffado.so.2:_ZN15Ieee1394Service12HelperThread19setThreadParametersEbi
libffado.so.2:_ZN15Ieee1394Service12HelperThread4InitEv
libffado.so.2:_ZN15Ieee1394Service12HelperThread4StopEv
libffado.so.2:_ZN15Ieee1394Service12HelperThread5StartEv
libffado.so.2:_ZN15Ieee1394Service12HelperThread7ExecuteEv
libffado.so.2:_ZN15Ieee1394Service12HelperThreadC1ERS_NSt7__cxx1112basic_stringIcSt11char_traitsIcESaIcEEE
libffado.so.2:_ZN15Ieee1394Service12HelperThreadC1ERS_NSt7__cxx1112basic_stringIcSt11char_traitsIcESaIcEEEbi
libffado.so.2:_ZN15Ieee1394Service12HelperThreadC2ERS_NSt7__cxx1112basic_stringIcSt11char_traitsIcESaIcEEE
libffado.so.2:_ZN15Ieee1394Service12HelperThreadC2ERS_NSt7__cxx1112basic_stringIcSt11char_traitsIcESaIcEEEbi
libffado.so.2:_ZN15Ieee1394Service12HelperThreadD0Ev
libffado.so.2:_ZN15Ieee1394Service12HelperThreadD1Ev
libffado.so.2:_ZN15Ieee1394Service12HelperThreadD2Ev
libffado.so.2:_ZN15Ieee1394Service12getNodeCountEv
libffado.so.2:_ZN15Ieee1394Service12read_quadletEtmPj
libffado.so.2:_ZN15Ieee1394Service12resetHandlerEj
libffado.so.2:_ZN15Ieee1394Service12write_octletEtmm
libffado.so.2:_ZN15Ieee1394Service13detectNbPortsEv
libffado.so.2:_ZN15Ieee1394Service13getCycleTimerEm
libffado.so.2:_ZN15Ieee1394Service13getCycleTimerEv
libffado.so.2:_ZN15Ieee1394Service13write_quadletEtmj
libffado.so.2:_ZN15Ieee1394Service14freeIsoChannelEi
libffado.so.2:_ZN15Ieee1394Service14getLocalNodeIdEv
libffado.so.2:_ZN15Ieee1394Service15getVerboseLevelEv
libffado.so.2:_ZN15Ieee1394Service15setVerboseLevelEi
libffado.so.2:_ZN15Ieee1394Service16_avc_fcp_handlerEP14raw1394_handletimPh
libffado.so.2:_ZN15Ieee1394Service16doFcpTransactionEv
libffado.so.2:_ZN15Ieee1394Service16findFreeARMBlockEmmm
libffado.so.2:_ZN15Ieee1394Service16transactionBlockEtPjiS0_
libffado.so.2:_ZN15Ieee1394Service16useConfigurationEPN4Util13ConfigurationE
libffado.so.2:_ZN15Ieee1394Service17handleFcpResponseEtimPh
libffado.so.2:_ZN15Ieee1394Service17lockCompareSwap64EtmmmPm
libffado.so.2:_ZN15Ieee1394Service17readCycleTimerRegEPjPm
libffado.so.2:_ZN15Ieee1394Service18addBusResetHandlerEPN4Util7FunctorE
libffado.so.2:_ZN15Ieee1394Service18armHandlerLowLevelEP14raw1394_handlemhjPv
libffado.so.2:_ZN15Ieee1394Service18getCycleTimerTicksEm
libffado.so.2:_ZN15Ieee1394Service18getCycleTimerTicksEv
libffado.so.2:_ZN15Ieee1394Service18registerARMHandlerEPNS_10ARMHandlerE
libffado.so.2:_ZN15Ieee1394Service18registerIsoChannelEjNS_11ChannelInfoE
libffado.so.2:_ZN15Ieee1394Service18remBusResetHandlerEPN4Util7FunctorE
libffado.so.2:_ZN15Ieee1394Service19doFcpTransactionTryEv
libffado.so.2:_ZN15Ieee1394Service19setThreadParametersEbi
libffado.so.2:_ZN15Ieee1394Service20configurationUpdatedEv
libffado.so.2:_ZN15Ieee1394Service20getSplitTimeoutUsecsEt
libffado.so.2:_ZN15Ieee1394Service20resetHandlerLowLevelEP14raw1394_handlej
libffado.so.2:_ZN15Ieee1394Service20setSplitTimeoutUsecsEtj
libffado.so.2:_ZN15Ieee1394Service20unregisterARMHandlerEPNS_10ARMHandlerE
libffado.so.2:_ZN15Ieee1394Service20unregisterIsoChannelEj
libffado.so.2:_ZN15Ieee1394Service21allocateIsoChannelCMPEtiti
libffado.so.2:_ZN15Ieee1394Service21getAvailableBandwidthEv
libffado.so.2:_ZN15Ieee1394Service21getCurrentTimeAsUsecsEv
libffado.so.2:_ZN15Ieee1394Service21transactionBlockCloseEv
libffado.so.2:_ZN15Ieee1394Service23setFCPResponseFilteringEb
libffado.so.2:_ZN15Ieee1394Service25allocateIsoChannelGenericEj
libffado.so.2:_ZN15Ieee1394Service25waitForBusResetStormToEndEii
libffado.so.2:_ZN15Ieee1394Service26getSystemTimeForCycleTimerEj
libffado.so.2:_ZN15Ieee1394Service30allocateFixedIsoChannelGenericEjj
libffado.so.2:_ZN15Ieee1394Service31getSystemTimeForCycleTimerTicksEj
libffado.so.2:_ZN15Ieee1394Service4readEtmmPj
libffado.so.2:_ZN15Ieee1394Service4showEv
libffado.so.2:_ZN15Ieee1394Service5writeEtmmPj
libffado.so.2:_ZN15Ieee1394ServiceC1Ebi
libffado.so.2:_ZN15Ieee1394ServiceC1Ev
libffado.so.2:_ZN15Ieee1394ServiceC2Ebi
libffado.so.2:_ZN15Ieee1394ServiceC2Ev
libffado.so.2:_ZN15Ieee1394ServiceD0Ev
libffado.so.2:_ZN15Ieee1394ServiceD1Ev
libffado.so.2:_ZN15Ieee1394ServiceD2Ev
libffado.so.2:_ZN16CycleTimerHelper10initValuesEv
libffado.so.2:_ZN16CycleTimerHelper13getCycleTimerEm
libffado.so.2:_ZN16CycleTimerHelper13getCycleTimerEv
libffado.so.2:_ZN16CycleTimerHelper14getNominalRateEv
libffado.so.2:_ZN16CycleTimerHelper15busresetHandlerEv
libffado.so.2:_ZN16CycleTimerHelper15setVerboseLevelEi
libffado.so.2:_ZN16CycleTimerHelper18getCycleTimerTicksEm
libffado.so.2:_ZN16CycleTimerHelper18getCycleTimerTicksEv
libffado.so.2:_ZN16CycleTimerHelper19setThreadParametersEbi
libffado.so.2:_ZN16CycleTimerHelper23readCycleTimerWithRetryEPjPmi
libffado.so.2:_ZN16CycleTimerHelper26getSystemTimeForCycleTimerEj
libffado.so.2:_ZN16CycleTimerHelper31getSystemTimeForCycleTimerTicksEj
libffado.so.2:_ZN16CycleTimerHelper4InitEv
libffado.so.2:_ZN16CycleTimerHelper5StartEv
libffado.so.2:_ZN16CycleTimerHelper7ExecuteEv
libffado.so.2:_ZN16CycleTimerHelper7getRateEv
libffado.so.2:_ZN16CycleTimerHelper7initDLLEv
libffado.so.2:_ZN16CycleTimerHelperC1ER15Ieee1394Servicej
libffado.so.2:_ZN16CycleTimerHelperC1ER15Ieee1394Servicejbi
libffado.so.2:_ZN16CycleTimerHelperC2ER15Ieee1394Servicej
libffado.so.2:_ZN16CycleTimerHelperC2ER15Ieee1394Servicejbi
libffado.so.2:_ZN16CycleTimerHelperD0Ev
libffado.so.2:_ZN16CycleTimerHelperD1Ev
libffado.so.2:_ZN16CycleTimerHelperD2Ev
libffado.so.2:_ZN17IsoHandlerManager10IsoHandler11eHTToStringENS0_12EHandlerTypeE
libffado.so.2:_ZN17IsoHandlerManager10IsoHandler11updateStateEv
libffado.so.2:_ZN17IsoHandlerManager10IsoHandler13notifyOfDeathEv
libffado.so.2:_ZN17IsoHandlerManager10IsoHandler13requestEnableEi
libffado.so.2:_ZN17IsoHandlerManager10IsoHandler14handleBusResetEv
libffado.so.2:_ZN17IsoHandlerManager10IsoHandler14registerStreamEPN9Streaming15StreamProcessorE
libffado.so.2:_ZN17IsoHandlerManager10IsoHandler14requestDisableEv
libffado.so.2:_ZN17IsoHandlerManager10IsoHandler15setVerboseLevelEi
libffado.so.2:_ZN17IsoHandlerManager10IsoHandler16canIterateClientEv
libffado.so.2:_ZN17IsoHandlerManager10IsoHandler16setIsoStartCycleEi
libffado.so.2:_ZN17IsoHandlerManager10IsoHandler16unregisterStreamEPN9Streaming15StreamProcessorE
libffado.so.2:_ZN17IsoHandlerManager10IsoHandler19iso_receive_handlerEP14raw1394_handlePhjhhhjj
libffado.so.2:_ZN17IsoHandlerManager10IsoHandler20iso_transmit_handlerEP14raw1394_handlePhPjS3_S3_ij
libffado.so.2:_ZN17IsoHandlerManager10IsoHandler6enableEi
libffado.so.2:_ZN17IsoHandlerManager10IsoHandler7disableEv
libffado.so.2:_ZN17IsoHandlerManager10IsoHandler7iterateEj
libffado.so.2:_ZN17IsoHandlerManager10IsoHandler7iterateEv
libffado.so.2:_ZN17IsoHandlerManager10IsoHandler8dumpInfoEv
libffado.so.2:_ZN17IsoHandlerManager10IsoHandler9getPacketEPhPjS1_S1_ijj
libffado.so.2:_ZN17IsoHandlerManager10IsoHandler9putPacketEPhjhhhjj
libffado.so.2:_ZN17IsoHandlerManager10IsoHandlerC1ERS_NS0_12EHandlerTypeE
libffado.so.2:_ZN17IsoHandlerManager10IsoHandlerC1ERS_NS0_12EHandlerTypeEjji
libffado.so.2:_ZN17IsoHandlerManager10IsoHandlerC1ERS_NS0_12EHandlerTypeEjji17raw1394_iso_speed
libffado.so.2:_ZN17IsoHandlerManager10IsoHandlerC2ERS_NS0_12EHandlerTypeE
libffado.so.2:_ZN17IsoHandlerManager10IsoHandlerC2ERS_NS0_12EHandlerTypeEjji
libffado.so.2:_ZN17IsoHandlerManager10IsoHandlerC2ERS_NS0_12EHandlerTypeEjji17raw1394_iso_speed
libffado.so.2:_ZN17IsoHandlerManager10IsoHandlerD1Ev
libffado.so.2:_ZN17IsoHandlerManager10IsoHandlerD2Ev
libffado.so.2:_ZN17IsoHandlerManager11eHSToStringENS_14eHandlerStatesE
libffado.so.2:_ZN17IsoHandlerManager12stopHandlersEv
libffado.so.2:_ZN17IsoHandlerManager13pruneHandlersEv
libffado.so.2:_ZN17IsoHandlerManager14handleBusResetEv
libffado.so.2:_ZN17IsoHandlerManager14registerStreamEPN9Streaming15StreamProcessorE
libffado.so.2:_ZN17IsoHandlerManager15registerHandlerEPNS_10IsoHandlerE
libffado.so.2:_ZN17IsoHandlerManager15setVerboseLevelEi
libffado.so.2:_ZN17IsoHandlerManager16unregisterStreamEPN9Streaming15StreamProcessorE
libffado.so.2:_ZN17IsoHandlerManager17dumpInfoForStreamEPN9Streaming15StreamProcessorE
libffado.so.2:_ZN17IsoHandlerManager17unregisterHandlerEPNS_10IsoHandlerE
libffado.so.2:_ZN17IsoHandlerManager19getHandlerForStreamEPN9Streaming15StreamProcessorE
libffado.so.2:_ZN17IsoHandlerManager19setThreadParametersEbi
libffado.so.2:_ZN17IsoHandlerManager20stopHandlerForStreamEPN9Streaming15StreamProcessorE
libffado.so.2:_ZN17IsoHandlerManager21signalActivityReceiveEv
libffado.so.2:_ZN17IsoHandlerManager21startHandlerForStreamEPN9Streaming15StreamProcessorE
libffado.so.2:_ZN17IsoHandlerManager21startHandlerForStreamEPN9Streaming15StreamProcessorEi
libffado.so.2:_ZN17IsoHandlerManager22requestShadowMapUpdateEv
libffado.so.2:_ZN17IsoHandlerManager22signalActivityTransmitEv
libffado.so.2:_ZN17IsoHandlerManager25getPacketLatencyForStreamEPN9Streaming15StreamProcessorE
libffado.so.2:_ZN17IsoHandlerManager25setIsoStartCycleForStreamEPN9Streaming15StreamProcessorEi
libffado.so.2:_ZN17IsoHandlerManager4initEv
libffado.so.2:_ZN17IsoHandlerManager5resetEv
libffado.so.2:_ZN17IsoHandlerManager7IsoTask14handleBusResetEv
libffado.so.2:_ZN17IsoHandlerManager7IsoTask14signalActivityEv
libffado.so.2:_ZN17IsoHandlerManager7IsoTask15setVerboseLevelEi
libffado.so.2:_ZN17IsoHandlerManager7IsoTask15waitForActivityEv
libffado.so.2:_ZN17IsoHandlerManager7IsoTask21updateShadowMapHelperEv
libffado.so.2:_ZN17IsoHandlerManager7IsoTask22requestShadowMapUpdateEv
libffado.so.2:_ZN17IsoHandlerManager7IsoTask4InitEv
libffado.so.2:_ZN17IsoHandlerManager7IsoTask7ExecuteEv
libffado.so.2:_ZN17IsoHandlerManager7IsoTaskC1ERS_NS_10IsoHandler12EHandlerTypeE
libffado.so.2:_ZN17IsoHandlerManager7IsoTaskC2ERS_NS_10IsoHandler12EHandlerTypeE
libffado.so.2:_ZN17IsoHandlerManager7IsoTaskD0Ev
libffado.so.2:_ZN17IsoHandlerManager7IsoTaskD1Ev
libffado.so.2:_ZN17IsoHandlerManager7IsoTaskD2Ev
libffado.so.2:_ZN17IsoHandlerManager8dumpInfoEv
libffado.so.2:_ZN17IsoHandlerManagerC1ER15Ieee1394Service
libffado.so.2:_ZN17IsoHandlerManagerC1ER15Ieee1394Servicebi
libffado.so.2:_ZN17IsoHandlerManagerC2ER15Ieee1394Service
libffado.so.2:_ZN17IsoHandlerManagerC2ER15Ieee1394Servicebi
libffado.so.2:_ZN17IsoHandlerManagerD0Ev
libffado.so.2:_ZN17IsoHandlerManagerD1Ev
libffado.so.2:_ZN17IsoHandlerManagerD2Ev
libffado.so.2:_ZN18DebugModuleManager14mb_thread_funcEPv
libffado.so.2:_ZN18DebugModuleManager14registerModuleER11DebugModule
libffado.so.2:_ZN18DebugModuleManager16setMgrDebugLevelENSt7__cxx1112basic_stringIcSt11char_traitsIcESaIcEEEs
libffado.so.2:_ZN18DebugModuleManager16unregisterModuleER11DebugModule
libffado.so.2:_ZN18DebugModuleManager4initEv
libffado.so.2:_ZN18DebugModuleManager5flushEv
libffado.so.2:_ZN18DebugModuleManager5printEPKc
libffado.so.2:_ZN18DebugModuleManager8instanceEv
libffado.so.2:_ZN18DebugModuleManager8mb_flushEv
libffado.so.2:_ZN18DebugModuleManagerC1Ev
libffado.so.2:_ZN18DebugModuleManagerC2Ev
libffado.so.2:_ZN18DebugModuleManagerD1Ev
libffado.so.2:_ZN18DebugModuleManagerD2Ev
libffado.so.2:_ZN18DeviceStringParser11parseStringENSt7__cxx1112basic_stringIcSt11char_traitsIcESaIcEEE
libffado.so.2:_ZN18DeviceStringParser12DeviceString13isValidStringENSt7__cxx1112basic_stringIcSt11char_traitsIcESaIcEEE
libffado.so.2:_ZN18DeviceStringParser12DeviceString4showEv
libffado.so.2:_ZN18DeviceStringParser12DeviceString5matchER9ConfigRom
libffado.so.2:_ZN18DeviceStringParser12DeviceString5parseENSt7__cxx1112basic_stringIcSt11char_traitsIcESaIcEEE
libffado.so.2:_ZN18DeviceStringParser12DeviceStringC1ERS_
libffado.so.2:_ZN18DeviceStringParser12DeviceStringC2ERS_
libffado.so.2:_ZN18DeviceStringParser12DeviceStringD1Ev
libffado.so.2:_ZN18DeviceStringParser12DeviceStringD2Ev
libffado.so.2:_ZN18DeviceStringParser12DeviceStringeqERKS0_
libffado.so.2:_ZN18DeviceStringParser13isValidStringENSt7__cxx1112basic_stringIcSt11char_traitsIcESaIcEEE
libffado.so.2:_ZN18DeviceStringParser13matchPositionER9ConfigRom
libffado.so.2:_ZN18DeviceStringParser15addDeviceStringEPNS_12DeviceStringE
libffado.so.2:_ZN18DeviceStringParser15hasDeviceStringEPNS_12DeviceStringE
libffado.so.2:_ZN18DeviceStringParser15pruneDuplicatesEv
libffado.so.2:_ZN18DeviceStringParser15setVerboseLevelEi
libffado.so.2:_ZN18DeviceStringParser16findDeviceStringEPNS_12DeviceStringE
libffado.so.2:_ZN18DeviceStringParser18removeDeviceStringEPNS_12DeviceStringE
libffado.so.2:_ZN18DeviceStringParser4showEv
libffado.so.2:_ZN18DeviceStringParser5matchER9ConfigRom
libffado.so.2:_ZN18DeviceStringParserC1Ev
libffado.so.2:_ZN18DeviceStringParserC2Ev
libffado.so.2:_ZN18DeviceStringParserD0Ev
libffado.so.2:_ZN18DeviceStringParserD1Ev
libffado.so.2:_ZN18DeviceStringParserD2Ev
libffado.so.2:_ZN3AVC10AVCCommand10setVerboseEi
libffado.so.2:_ZN3AVC10AVCCommand11deserializeERN4Util3Cmd14IISDeserializeE
libffado.so.2:_ZN3AVC10AVCCommand11getResponseEv
libffado.so.2:_ZN3AVC10AVCCommand12getSubunitIdEv
libffado.so.2:_ZN3AVC10AVCCommand12setSubunitIdEh
libffado.so.2:_ZN3AVC10AVCCommand14getCommandTypeEv
libffado.so.2:_ZN3AVC10AVCCommand14getSubunitTypeEv
libffado.so.2:_ZN3AVC10AVCCommand14setCommandTypeENS0_12ECommandTypeE
libffado.so.2:_ZN3AVC10AVCCommand14setSubunitTypeENS_12ESubunitTypeE
libffado.so.2:_ZN3AVC10AVCCommand15getVerboseLevelEv
libffado.so.2:_ZN3AVC10AVCCommand4fireEv
libffado.so.2:_ZN3AVC10AVCCommand9serializeERN4Util3Cmd12IOSSerializeE
libffado.so.2:_ZN3AVC10AVCCommand9setNodeIdEt
libffado.so.2:_ZN3AVC10AVCCommandC1ER15Ieee1394Serviceh
libffado.so.2:_ZN3AVC10AVCCommandC2ER15Ieee1394Serviceh
libffado.so.2:_ZN3AVC10ConnectCmd11deserializeERN4Util3Cmd14IISDeserializeE
libffado.so.2:_ZN3AVC10ConnectCmd9serializeERN4Util3Cmd12IOSSerializeE
libffado.so.2:_ZN3AVC10ConnectCmdC1ER15Ieee1394Service
libffado.so.2:_ZN3AVC10ConnectCmdC2ER15Ieee1394Service
libffado.so.2:_ZN3AVC10ConnectCmdD0Ev
libffado.so.2:_ZN3AVC10ConnectCmdD1Ev
libffado.so.2:_ZN3AVC10ConnectCmdD2Ev
libffado.so.2:_ZN3AVC11PlugAddress11deserializeERN4Util3Cmd14IISDeserializeE
libffado.so.2:_ZN3AVC11PlugAddress9serializeERN4Util3Cmd12IOSSerializeE
libffado.so.2:_ZN3AVC11PlugAddressC1ENS0_14EPlugDirectionENS0_16EPlugAddressModeERNS_15UnitPlugAddressE
libffado.so.2:_ZN3AVC11PlugAddressC1ENS0_14EPlugDirectionENS0_16EPlugAddressModeERNS_18SubunitPlugAddressE
libffado.so.2:_ZN3AVC11PlugAddressC1ENS0_14EPlugDirectionENS0_16EPlugAddressModeERNS_24FunctionBlockPlugAddressE
libffado.so.2:_ZN3AVC11PlugAddressC1ERKS0_
libffado.so.2:_ZN3AVC11PlugAddressC1Ev
libffado.so.2:_ZN3AVC11PlugAddressC2ENS0_14EPlugDirectionENS0_16EPlugAddressModeERNS_15UnitPlugAddressE
libffado.so.2:_ZN3AVC11PlugAddressC2ENS0_14EPlugDirectionENS0_16EPlugAddressModeERNS_18SubunitPlugAddressE
libffado.so.2:_ZN3AVC11PlugAddressC2ENS0_14EPlugDirectionENS0_16EPlugAddressModeERNS_24FunctionBlockPlugAddressE
libffado.so.2:_ZN3AVC11PlugAddressC2ERKS0_
libffado.so.2:_ZN3AVC11PlugAddressC2Ev
libffado.so.2:_ZN3AVC11PlugAddressD0Ev
libffado.so.2:_ZN3AVC11PlugAddressD1Ev
libffado.so.2:_ZN3AVC11PlugAddressD2Ev
libffado.so.2:_ZN3AVC11PlugInfoCmd11deserializeERN4Util3Cmd14IISDeserializeE
libffado.so.2:_ZN3AVC11PlugInfoCmd14setSubFunctionENS0_12ESubFunctionE
libffado.so.2:_ZN3AVC11PlugInfoCmd5clearEv
libffado.so.2:_ZN3AVC11PlugInfoCmd9serializeERN4Util3Cmd12IOSSerializeE
libffado.so.2:_ZN3AVC11PlugInfoCmdC1ER15Ieee1394ServiceNS0_12ESubFunctionE
libffado.so.2:_ZN3AVC11PlugInfoCmdC1ERKS0_
libffado.so.2:_ZN3AVC11PlugInfoCmdC2ER15Ieee1394ServiceNS0_12ESubFunctionE
libffado.so.2:_ZN3AVC11PlugInfoCmdC2ERKS0_
libffado.so.2:_ZN3AVC11PlugInfoCmdD0Ev
libffado.so.2:_ZN3AVC11PlugInfoCmdD1Ev
libffado.so.2:_ZN3AVC11PlugInfoCmdD2Ev
libffado.so.2:_ZN3AVC11PlugManager11deserializeENSt7__cxx1112basic_stringIcSt11char_traitsIcESaIcEEERN4Util13IODeserializeERNS_4UnitE
libffado.so.2:_ZN3AVC11PlugManager15setVerboseLevelEi
libffado.so.2:_ZN3AVC11PlugManager17deserializeUpdateENSt7__cxx1112basic_stringIcSt11char_traitsIcESaIcEEERN4Util13IODeserializeE
libffado.so.2:_ZN3AVC11PlugManager19tidyPlugConnectionsERSt6vectorIPNS_14PlugConnectionESaIS3_EE
libffado.so.2:_ZN3AVC11PlugManager7addPlugERNS_4PlugE
libffado.so.2:_ZN3AVC11PlugManager7remPlugERNS_4PlugE
libffado.so.2:_ZN3AVC11PlugManagerC1ERKS0_
libffado.so.2:_ZN3AVC11PlugManagerC1Ev
libffado.so.2:_ZN3AVC11PlugManagerC2ERKS0_
libffado.so.2:_ZN3AVC11PlugManagerC2Ev
libffado.so.2:_ZN3AVC11PlugManagerD1Ev
libffado.so.2:_ZN3AVC11PlugManagerD2Ev
libffado.so.2:_ZN3AVC11UnitInfoCmd11deserializeERN4Util3Cmd14IISDeserializeE
libffado.so.2:_ZN3AVC11UnitInfoCmd9serializeERN4Util3Cmd12IOSSerializeE
libffado.so.2:_ZN3AVC11UnitInfoCmdC1ER15Ieee1394Service
libffado.so.2:_ZN3AVC11UnitInfoCmdC2ER15Ieee1394Service
libffado.so.2:_ZN3AVC11UnitInfoCmdD0Ev
libffado.so.2:_ZN3AVC11UnitInfoCmdD1Ev
libffado.so.2:_ZN3AVC11UnitInfoCmdD2Ev
libffado.so.2:_ZN3AVC12AVCInfoBlock10setVerboseEi
libffado.so.2:_ZN3AVC12AVCInfoBlock11deserializeERN4Util3Cmd14IISDeserializeE
libffado.so.2:_ZN3AVC12AVCInfoBlock13peekBlockTypeERN4Util3Cmd14IISDeserializeEPt
libffado.so.2:_ZN3AVC12AVCInfoBlock15getVerboseLevelEv
libffado.so.2:_ZN3AVC12AVCInfoBlock15peekBlockLengthERN4Util3Cmd14IISDeserializeEPt
libffado.so.2:_ZN3AVC12AVCInfoBlock4showEv
libffado.so.2:_ZN3AVC12AVCInfoBlock9serializeERN4Util3Cmd12IOSSerializeE
libffado.so.2:_ZN3AVC12AVCInfoBlockC1Et
libffado.so.2:_ZN3AVC12AVCInfoBlockC1Ev
libffado.so.2:_ZN3AVC12AVCInfoBlockC2Et
libffado.so.2:_ZN3AVC12AVCInfoBlockC2Ev
libffado.so.2:_ZN3AVC12SubunitAudio7getNameEv
libffado.so.2:_ZN3AVC12SubunitAudio8discoverEv
libffado.so.2:_ZN3AVC12SubunitAudioC1ERNS_4UnitEh
libffado.so.2:_ZN3AVC12SubunitAudioC1Ev
libffado.so.2:_ZN3AVC12SubunitAudioC2ERNS_4UnitEh
libffado.so.2:_ZN3AVC12SubunitAudioC2Ev
libffado.so.2:_ZN3AVC12SubunitAudioD0Ev
libffado.so.2:_ZN3AVC12SubunitAudioD1Ev
libffado.so.2:_ZN3AVC12SubunitAudioD2Ev
libffado.so.2:_ZN3AVC12SubunitMusic14showMusicPlugsEv
libffado.so.2:_ZN3AVC12SubunitMusic15loadDescriptorsEv
libffado.so.2:_ZN3AVC12SubunitMusic15setVerboseLevelEi
libffado.so.2:_ZN3AVC12SubunitMusic16deserializeChildENSt7__cxx1112basic_stringIcSt11char_traitsIcESaIcEEERN4Util13IODeserializeERNS_4UnitE
libffado.so.2:_ZN3AVC12SubunitMusic22deserializeUpdateChildENSt7__cxx1112basic_stringIcSt11char_traitsIcESaIcEEERN4Util13IODeserializeE
libffado.so.2:_ZN3AVC12SubunitMusic22initPlugFromDescriptorERNS_4PlugE
libffado.so.2:_ZN3AVC12SubunitMusic7getNameEv
libffado.so.2:_ZN3AVC12SubunitMusic8discoverEv
libffado.so.2:_ZN3AVC12SubunitMusicC1ERNS_4UnitEh
libffado.so.2:_ZN3AVC12SubunitMusicC1Ev
libffado.so.2:_ZN3AVC12SubunitMusicC2ERNS_4UnitEh
libffado.so.2:_ZN3AVC12SubunitMusicC2Ev
libffado.so.2:_ZN3AVC12SubunitMusicD0Ev
libffado.so.2:_ZN3AVC12SubunitMusicD1Ev
libffado.so.2:_ZN3AVC12SubunitMusicD2Ev
libffado.so.2:_ZN3AVC13AVCDescriptor11deserializeERN4Util3Cmd14IISDeserializeE
libffado.so.2:_ZN3AVC13AVCDescriptor15getVerboseLevelEv
libffado.so.2:_ZN3AVC13AVCDescriptor15setVerboseLevelEi
libffado.so.2:_ZN3AVC13AVCDescriptor4loadEv
libffado.so.2:_ZN3AVC13AVCDescriptor4showEv
libffado.so.2:_ZN3AVC13AVCDescriptor6reloadEv
libffado.so.2:_ZN3AVC13AVCDescriptor9serializeERN4Util3Cmd12IOSSerializeE
libffado.so.2:_ZN3AVC13AVCDescriptorC1EPNS_4UnitE
libffado.so.2:_ZN3AVC13AVCDescriptorC1EPNS_4UnitEPNS_7SubunitE
libffado.so.2:_ZN3AVC13AVCDescriptorC1EPNS_4UnitEPNS_7SubunitENS_22AVCDescriptorSpecifierE
libffado.so.2:_ZN3AVC13AVCDescriptorC2EPNS_4UnitE
libffado.so.2:_ZN3AVC13AVCDescriptorC2EPNS_4UnitEPNS_7SubunitE
libffado.so.2:_ZN3AVC13AVCDescriptorC2EPNS_4UnitEPNS_7SubunitENS_22AVCDescriptorSpecifierE
libffado.so.2:_ZN3AVC13AVCDescriptorD0Ev
libffado.so.2:_ZN3AVC13AVCDescriptorD1Ev
libffado.so.2:_ZN3AVC13AVCDescriptorD2Ev
libffado.so.2:_ZN3AVC14PlugConnection11deserializeENSt7__cxx1112basic_stringIcSt11char_traitsIcESaIcEEERN4Util13IODeserializeERNS_4UnitE
libffado.so.2:_ZN3AVC14PlugConnectionC1ERNS_4PlugES2_
libffado.so.2:_ZN3AVC14PlugConnectionC1Ev
libffado.so.2:_ZN3AVC14PlugConnectionC2ERNS_4PlugES2_
libffado.so.2:_ZN3AVC14PlugConnectionC2Ev
libffado.so.2:_ZN3AVC14SubUnitInfoCmd11deserializeERN4Util3Cmd14IISDeserializeE
libffado.so.2:_ZN3AVC14SubUnitInfoCmd5clearEv
libffado.so.2:_ZN3AVC14SubUnitInfoCmd9serializeERN4Util3Cmd12IOSSerializeE
libffado.so.2:_ZN3AVC14SubUnitInfoCmdC1ER15Ieee1394Service
libffado.so.2:_ZN3AVC14SubUnitInfoCmdC2ER15Ieee1394Service
libffado.so.2:_ZN3AVC14SubUnitInfoCmdD0Ev
libffado.so.2:_ZN3AVC14SubUnitInfoCmdD1Ev
libffado.so.2:_ZN3AVC14SubUnitInfoCmdD2Ev
libffado.so.2:_ZN3AVC15SignalSourceCmd11deserializeERN4Util3Cmd14IISDeserializeE
libffado.so.2:_ZN3AVC15SignalSourceCmd15getSignalSourceEv
libffado.so.2:_ZN3AVC15SignalSourceCmd15setSignalSourceERNS_17SignalUnitAddressE
libffado.so.2:_ZN3AVC15SignalSourceCmd15setSignalSourceERNS_20SignalSubunitAddressE
libffado.so.2:_ZN3AVC15SignalSourceCmd20getSignalDestinationEv
libffado.so.2:_ZN3AVC15SignalSourceCmd20setSignalDestinationERNS_17SignalUnitAddressE
libffado.so.2:_ZN3AVC15SignalSourceCmd20setSignalDestinationERNS_20SignalSubunitAddressE
libffado.so.2:_ZN3AVC15SignalSourceCmd9serializeERN4Util3Cmd12IOSSerializeE
libffado.so.2:_ZN3AVC15SignalSourceCmdC1ER15Ieee1394Service
libffado.so.2:_ZN3AVC15SignalSourceCmdC2ER15Ieee1394Service
libffado.so.2:_ZN3AVC15SignalSourceCmdD0Ev
libffado.so.2:_ZN3AVC15SignalSourceCmdD1Ev
libffado.so.2:_ZN3AVC15SignalSourceCmdD2Ev
libffado.so.2:_ZN3AVC15UnitPlugAddress11deserializeERN4Util3Cmd14IISDeserializeE
libffado.so.2:_ZN3AVC15UnitPlugAddress9serializeERN4Util3Cmd12IOSSerializeE
libffado.so.2:_ZN3AVC15UnitPlugAddressC1ENS0_9EPlugTypeEh
libffado.so.2:_ZN3AVC15UnitPlugAddressC2ENS0_9EPlugTypeEh
libffado.so.2:_ZN3AVC15UnitPlugAddressD0Ev
libffado.so.2:_ZN3AVC15UnitPlugAddressD1Ev
libffado.so.2:_ZN3AVC15UnitPlugAddressD2Ev
libffado.so.2:_ZN3AVC15parseSampleRateEi
libffado.so.2:_ZN3AVC16AVCNameInfoBlock11deserializeERN4Util3Cmd14IISDeserializeE
libffado.so.2:_ZN3AVC16AVCNameInfoBlock5clearEv
libffado.so.2:_ZN3AVC16AVCNameInfoBlock9serializeERN4Util3Cmd12IOSSerializeE
libffado.so.2:_ZN3AVC16AVCNameInfoBlockC1Ev
libffado.so.2:_ZN3AVC16AVCNameInfoBlockC2Ev
libffado.so.2:_ZN3AVC16AVCNameInfoBlockD0Ev
libffado.so.2:_ZN3AVC16AVCNameInfoBlockD1Ev
libffado.so.2:_ZN3AVC16AVCNameInfoBlockD2Ev
libffado.so.2:_ZN3AVC16FunctionBlockCmd11deserializeERN4Util3Cmd14IISDeserializeE
libffado.so.2:_ZN3AVC16FunctionBlockCmd9serializeERN4Util3Cmd12IOSSerializeE
libffado.so.2:_ZN3AVC16FunctionBlockCmdC1ER15Ieee1394ServiceNS0_18EFunctionBlockTypeEhNS0_17EControlAttributeE
libffado.so.2:_ZN3AVC16FunctionBlockCmdC1ERKS0_
libffado.so.2:_ZN3AVC16FunctionBlockCmdC2ER15Ieee1394ServiceNS0_18EFunctionBlockTypeEhNS0_17EControlAttributeE
libffado.so.2:_ZN3AVC16FunctionBlockCmdC2ERKS0_
libffado.so.2:_ZN3AVC16FunctionBlockCmdD0Ev
libffado.so.2:_ZN3AVC16FunctionBlockCmdD1Ev
libffado.so.2:_ZN3AVC16FunctionBlockCmdD2Ev
libffado.so.2:_ZN3AVC16StreamFormatInfo11deserializeERN4Util3Cmd14IISDeserializeE
libffado.so.2:_ZN3AVC16StreamFormatInfo9serializeERN4Util3Cmd12IOSSerializeE
libffado.so.2:_ZN3AVC16StreamFormatInfoC1Ev
libffado.so.2:_ZN3AVC16StreamFormatInfoC2Ev
libffado.so.2:_ZN3AVC16responseToStringENS_10AVCCommand9EResponseE
libffado.so.2:_ZN3AVC17FormatInformation11deserializeERN4Util3Cmd14IISDeserializeE
libffado.so.2:_ZN3AVC17FormatInformation9serializeERN4Util3Cmd12IOSSerializeE
libffado.so.2:_ZN3AVC17FormatInformationC1ERKS0_
libffado.so.2:_ZN3AVC17FormatInformationC1Ev
libffado.so.2:_ZN3AVC17FormatInformationC2ERKS0_
libffado.so.2:_ZN3AVC17FormatInformationC2Ev
libffado.so.2:_ZN3AVC17FormatInformationD0Ev
libffado.so.2:_ZN3AVC17FormatInformationD1Ev
libffado.so.2:_ZN3AVC17FormatInformationD2Ev
libffado.so.2:_ZN3AVC17OpenDescriptorCmd11deserializeERN4Util3Cmd14IISDeserializeE
libffado.so.2:_ZN3AVC17OpenDescriptorCmd5clearEv
libffado.so.2:_ZN3AVC17OpenDescriptorCmd9serializeERN4Util3Cmd12IOSSerializeE
libffado.so.2:_ZN3AVC17OpenDescriptorCmdC1ER15Ieee1394Service
libffado.so.2:_ZN3AVC17OpenDescriptorCmdC2ER15Ieee1394Service
libffado.so.2:_ZN3AVC17OpenDescriptorCmdD0Ev
libffado.so.2:_ZN3AVC17OpenDescriptorCmdD1Ev
libffado.so.2:_ZN3AVC17OpenDescriptorCmdD2Ev
libffado.so.2:_ZN3AVC17ReadDescriptorCmd11deserializeERN4Util3Cmd14IISDeserializeE
libffado.so.2:_ZN3AVC17ReadDescriptorCmd5clearEv
libffado.so.2:_ZN3AVC17ReadDescriptorCmd9getStatusEv
libffado.so.2:_ZN3AVC17ReadDescriptorCmd9serializeERN4Util3Cmd12IOSSerializeE
libffado.so.2:_ZN3AVC17ReadDescriptorCmdC1ER15Ieee1394Service
libffado.so.2:_ZN3AVC17ReadDescriptorCmdC2ER15Ieee1394Service
libffado.so.2:_ZN3AVC17ReadDescriptorCmdD0Ev
libffado.so.2:_ZN3AVC17ReadDescriptorCmdD1Ev
libffado.so.2:_ZN3AVC17ReadDescriptorCmdD2Ev
libffado.so.2:_ZN3AVC17SignalUnitAddress11deserializeERN4Util3Cmd14IISDeserializeE
libffado.so.2:_ZN3AVC17SignalUnitAddress9serializeERN4Util3Cmd12IOSSerializeE
libffado.so.2:_ZN3AVC17SignalUnitAddressC1Ev
libffado.so.2:_ZN3AVC17SignalUnitAddressC2Ev
libffado.so.2:_ZN3AVC17byteToSubunitTypeEh
libffado.so.2:_ZN3AVC18FunctionBlockCodec11deserializeERN4Util3Cmd14IISDeserializeE
libffado.so.2:_ZN3AVC18FunctionBlockCodec9serializeERN4Util3Cmd12IOSSerializeE
libffado.so.2:_ZN3AVC18FunctionBlockCodecC1ERKS0_
libffado.so.2:_ZN3AVC18FunctionBlockCodecC1Ev
libffado.so.2:_ZN3AVC18FunctionBlockCodecC2ERKS0_
libffado.so.2:_ZN3AVC18FunctionBlockCodecC2Ev
libffado.so.2:_ZN3AVC18FunctionBlockCodecD0Ev
libffado.so.2:_ZN3AVC18FunctionBlockCodecD1Ev
libffado.so.2:_ZN3AVC18FunctionBlockCodecD2Ev
libffado.so.2:_ZN3AVC18SubunitPlugAddress11deserializeERN4Util3Cmd14IISDeserializeE
libffado.so.2:_ZN3AVC18SubunitPlugAddress9serializeERN4Util3Cmd12IOSSerializeE
libffado.so.2:_ZN3AVC18SubunitPlugAddressC1Eh
libffado.so.2:_ZN3AVC18SubunitPlugAddressC2Eh
libffado.so.2:_ZN3AVC18SubunitPlugAddressD0Ev
libffado.so.2:_ZN3AVC18SubunitPlugAddressD1Ev
libffado.so.2:_ZN3AVC18SubunitPlugAddressD2Ev
libffado.so.2:_ZN3AVC18VendorDependentCmd11deserializeERN4Util3Cmd14IISDeserializeE
libffado.so.2:_ZN3AVC18VendorDependentCmd9serializeERN4Util3Cmd12IOSSerializeE
libffado.so.2:_ZN3AVC18VendorDependentCmdC1ER15Ieee1394Service
libffado.so.2:_ZN3AVC18VendorDependentCmdC2ER15Ieee1394Service
libffado.so.2:_ZN3AVC18VendorDependentCmdD0Ev
libffado.so.2:_ZN3AVC18VendorDependentCmdD1Ev
libffado.so.2:_ZN3AVC18VendorDependentCmdD2Ev
libffado.so.2:_ZN3AVC18avPlugTypeToStringENS_4Plug9EPlugTypeE
libffado.so.2:_ZN3AVC18fdfSfcToSampleRateEh
libffado.so.2:_ZN3AVC18sampleRateToFdfSfcEj
libffado.so.2:_ZN3AVC19AVCRawTextInfoBlock11deserializeERN4Util3Cmd14IISDeserializeE
libffado.so.2:_ZN3AVC19AVCRawTextInfoBlock5clearEv
libffado.so.2:_ZN3AVC19AVCRawTextInfoBlock9serializeERN4Util3Cmd12IOSSerializeE
libffado.so.2:_ZN3AVC19AVCRawTextInfoBlockC1Ev
libffado.so.2:_ZN3AVC19AVCRawTextInfoBlockC2Ev
libffado.so.2:_ZN3AVC19AVCRawTextInfoBlockD0Ev
libffado.so.2:_ZN3AVC19AVCRawTextInfoBlockD1Ev
libffado.so.2:_ZN3AVC19AVCRawTextInfoBlockD2Ev
libffado.so.2:_ZN3AVC19ExtendedPlugInfoCmd11deserializeERN4Util3Cmd14IISDeserializeE
libffado.so.2:_ZN3AVC19ExtendedPlugInfoCmd11setInfoTypeERKNS_24ExtendedPlugInfoInfoTypeE
libffado.so.2:_ZN3AVC19ExtendedPlugInfoCmd14setPlugAddressERKNS_11PlugAddressE
libffado.so.2:_ZN3AVC19ExtendedPlugInfoCmd14setSubFunctionENS0_12ESubFunctionE
libffado.so.2:_ZN3AVC19ExtendedPlugInfoCmd9serializeERN4Util3Cmd12IOSSerializeE
libffado.so.2:_ZN3AVC19ExtendedPlugInfoCmdC1ER15Ieee1394ServiceNS0_12ESubFunctionE
libffado.so.2:_ZN3AVC19ExtendedPlugInfoCmdC1ERKS0_
libffado.so.2:_ZN3AVC19ExtendedPlugInfoCmdC2ER15Ieee1394ServiceNS0_12ESubFunctionE
libffado.so.2:_ZN3AVC19ExtendedPlugInfoCmdC2ERKS0_
libffado.so.2:_ZN3AVC19ExtendedPlugInfoCmdD0Ev
libffado.so.2:_ZN3AVC19ExtendedPlugInfoCmdD1Ev
libffado.so.2:_ZN3AVC19ExtendedPlugInfoCmdD2Ev
libffado.so.2:_ZN3AVC19serializePlugVectorENSt7__cxx1112basic_stringIcSt11char_traitsIcESaIcEEERN4Util11IOSerializeERKSt6vectorIPNS_4PlugESaISB_EE
libffado.so.2:_ZN3AVC19subunitTypeToStringEh
libffado.so.2:_ZN3AVC20FunctionBlockFeature11deserializeERN4Util3Cmd14IISDeserializeE
libffado.so.2:_ZN3AVC20FunctionBlockFeature9serializeERN4Util3Cmd12IOSSerializeE
libffado.so.2:_ZN3AVC20FunctionBlockFeatureC1ERKS0_
libffado.so.2:_ZN3AVC20FunctionBlockFeatureC1Ev
libffado.so.2:_ZN3AVC20FunctionBlockFeatureC2ERKS0_
libffado.so.2:_ZN3AVC20FunctionBlockFeatureC2Ev
libffado.so.2:_ZN3AVC20FunctionBlockFeatureD0Ev
libffado.so.2:_ZN3AVC20FunctionBlockFeatureD1Ev
libffado.so.2:_ZN3AVC20FunctionBlockFeatureD2Ev
libffado.so.2:_ZN3AVC20SignalSubunitAddress11deserializeERN4Util3Cmd14IISDeserializeE
libffado.so.2:_ZN3AVC20SignalSubunitAddress9serializeERN4Util3Cmd12IOSSerializeE
libffado.so.2:_ZN3AVC20SignalSubunitAddressC1Ev
libffado.so.2:_ZN3AVC20SignalSubunitAddressC2Ev
libffado.so.2:_ZN3AVC20UndefinedPlugAddress11deserializeERN4Util3Cmd14IISDeserializeE
libffado.so.2:_ZN3AVC20UndefinedPlugAddress9serializeERN4Util3Cmd12IOSSerializeE
libffado.so.2:_ZN3AVC20UndefinedPlugAddressC1Ev
libffado.so.2:_ZN3AVC20UndefinedPlugAddressC2Ev
libffado.so.2:_ZN3AVC20UndefinedPlugAddressD0Ev
libffado.so.2:_ZN3AVC20UndefinedPlugAddressD1Ev
libffado.so.2:_ZN3AVC20UndefinedPlugAddressD2Ev
libffado.so.2:_ZN3AVC21AVCMusicPlugInfoBlock11deserializeERN4Util3Cmd14IISDeserializeE
libffado.so.2:_ZN3AVC21AVCMusicPlugInfoBlock4showEv
libffado.so.2:_ZN3AVC21AVCMusicPlugInfoBlock5clearEv
libffado.so.2:_ZN3AVC21AVCMusicPlugInfoBlock7getNameB5cxx11Ev
libffado.so.2:_ZN3AVC21AVCMusicPlugInfoBlock9serializeERN4Util3Cmd12IOSSerializeE
libffado.so.2:_ZN3AVC21AVCMusicPlugInfoBlockC1Ev
libffado.so.2:_ZN3AVC21AVCMusicPlugInfoBlockC2Ev
libffado.so.2:_ZN3AVC21FunctionBlockSelector11deserializeERN4Util3Cmd14IISDeserializeE
libffado.so.2:_ZN3AVC21FunctionBlockSelector9serializeERN4Util3Cmd12IOSSerializeE
libffado.so.2:_ZN3AVC21FunctionBlockSelectorC1ERKS0_
libffado.so.2:_ZN3AVC21FunctionBlockSelectorC1Ev
libffado.so.2:_ZN3AVC21FunctionBlockSelectorC2ERKS0_
libffado.so.2:_ZN3AVC21FunctionBlockSelectorC2Ev
libffado.so.2:_ZN3AVC21FunctionBlockSelectorD0Ev
libffado.so.2:_ZN3AVC21FunctionBlockSelectorD1Ev
libffado.so.2:_ZN3AVC21FunctionBlockSelectorD2Ev
libffado.so.2:_ZN3AVC21deserializePlugVectorENSt7__cxx1112basic_stringIcSt11char_traitsIcESaIcEEERN4Util13IODeserializeERKNS_11PlugManagerERSt6vectorIPNS_4PlugESaISE_EE
libffado.so.2:_ZN3AVC22AVCDescriptorSpecifier11deserializeERN4Util3Cmd14IISDeserializeE
libffado.so.2:_ZN3AVC22AVCDescriptorSpecifier9serializeERN4Util3Cmd12IOSSerializeE
libffado.so.2:_ZN3AVC22AVCDescriptorSpecifierC1ENS0_5ETypeE
libffado.so.2:_ZN3AVC22AVCDescriptorSpecifierC2ENS0_5ETypeE
libffado.so.2:_ZN3AVC22ExtendedSubunitInfoCmd11deserializeERN4Util3Cmd14IISDeserializeE
libffado.so.2:_ZN3AVC22ExtendedSubunitInfoCmd9serializeERN4Util3Cmd12IOSSerializeE
libffado.so.2:_ZN3AVC22ExtendedSubunitInfoCmdC1ER15Ieee1394Service
libffado.so.2:_ZN3AVC22ExtendedSubunitInfoCmdC1ERKS0_
libffado.so.2:_ZN3AVC22ExtendedSubunitInfoCmdC2ER15Ieee1394Service
libffado.so.2:_ZN3AVC22ExtendedSubunitInfoCmdC2ERKS0_
libffado.so.2:_ZN3AVC22ExtendedSubunitInfoCmdD0Ev
libffado.so.2:_ZN3AVC22ExtendedSubunitInfoCmdD1Ev
libffado.so.2:_ZN3AVC22ExtendedSubunitInfoCmdD2Ev
libffado.so.2:_ZN3AVC23ExtendedStreamFormatCmd11deserializeERN4Util3Cmd14IISDeserializeE
libffado.so.2:_ZN3AVC23ExtendedStreamFormatCmd14setPlugAddressERKNS_11PlugAddressE
libffado.so.2:_ZN3AVC23ExtendedStreamFormatCmd14setSubFunctionENS0_12ESubFunctionE
libffado.so.2:_ZN3AVC23ExtendedStreamFormatCmd20getFormatInformationEv
libffado.so.2:_ZN3AVC23ExtendedStreamFormatCmd22setIndexInStreamFormatEi
libffado.so.2:_ZN3AVC23ExtendedStreamFormatCmd8getIndexEv
libffado.so.2:_ZN3AVC23ExtendedStreamFormatCmd9getStatusEv
libffado.so.2:_ZN3AVC23ExtendedStreamFormatCmd9serializeERN4Util3Cmd12IOSSerializeE
libffado.so.2:_ZN3AVC23ExtendedStreamFormatCmdC1ER15Ieee1394ServiceNS0_12ESubFunctionE
libffado.so.2:_ZN3AVC23ExtendedStreamFormatCmdC1ERKS0_
libffado.so.2:_ZN3AVC23ExtendedStreamFormatCmdC2ER15Ieee1394ServiceNS0_12ESubFunctionE
libffado.so.2:_ZN3AVC23ExtendedStreamFormatCmdC2ERKS0_
libffado.so.2:_ZN3AVC23ExtendedStreamFormatCmdD0Ev
libffado.so.2:_ZN3AVC23ExtendedStreamFormatCmdD1Ev
libffado.so.2:_ZN3AVC23ExtendedStreamFormatCmdD2Ev
libffado.so.2:_ZN3AVC23FunctionBlockProcessing11deserializeERN4Util3Cmd14IISDeserializeE
libffado.so.2:_ZN3AVC23FunctionBlockProcessing9serializeERN4Util3Cmd12IOSSerializeE
libffado.so.2:_ZN3AVC23FunctionBlockProcessingC1ERKS0_
libffado.so.2:_ZN3AVC23FunctionBlockProcessingC1Ev
libffado.so.2:_ZN3AVC23FunctionBlockProcessingC2ERKS0_
libffado.so.2:_ZN3AVC23FunctionBlockProcessingC2Ev
libffado.so.2:_ZN3AVC23FunctionBlockProcessingD0Ev
libffado.so.2:_ZN3AVC23FunctionBlockProcessingD1Ev
libffado.so.2:_ZN3AVC23FunctionBlockProcessingD2Ev
libffado.so.2:_ZN3AVC23PlugAddressSpecificData11deserializeERN4Util3Cmd14IISDeserializeE
libffado.so.2:_ZN3AVC23PlugAddressSpecificData9serializeERN4Util3Cmd12IOSSerializeE
libffado.so.2:_ZN3AVC23PlugAddressSpecificDataC1ENS0_14EPlugDirectionENS0_16EPlugAddressModeERNS_31UnitPlugSpecificDataPlugAddressE
libffado.so.2:_ZN3AVC23PlugAddressSpecificDataC1ENS0_14EPlugDirectionENS0_16EPlugAddressModeERNS_34SubunitPlugSpecificDataPlugAddressE
libffado.so.2:_ZN3AVC23PlugAddressSpecificDataC1ENS0_14EPlugDirectionENS0_16EPlugAddressModeERNS_40FunctionBlockPlugSpecificDataPlugAddressE
libffado.so.2:_ZN3AVC23PlugAddressSpecificDataC1ERKS0_
libffado.so.2:_ZN3AVC23PlugAddressSpecificDataC2ENS0_14EPlugDirectionENS0_16EPlugAddressModeERNS_31UnitPlugSpecificDataPlugAddressE
libffado.so.2:_ZN3AVC23PlugAddressSpecificDataC2ENS0_14EPlugDirectionENS0_16EPlugAddressModeERNS_34SubunitPlugSpecificDataPlugAddressE
libffado.so.2:_ZN3AVC23PlugAddressSpecificDataC2ENS0_14EPlugDirectionENS0_16EPlugAddressModeERNS_40FunctionBlockPlugSpecificDataPlugAddressE
libffado.so.2:_ZN3AVC23PlugAddressSpecificDataC2ERKS0_
libffado.so.2:_ZN3AVC23PlugAddressSpecificDataD0Ev
libffado.so.2:_ZN3AVC23PlugAddressSpecificDataD1Ev
libffado.so.2:_ZN3AVC23PlugAddressSpecificDataD2Ev
libffado.so.2:_ZN3AVC23avPlugDirectionToStringENS_4Plug14EPlugDirectionE
libffado.so.2:_ZN3AVC24AVCMusicClusterInfoBlock11deserializeERN4Util3Cmd14IISDeserializeE
libffado.so.2:_ZN3AVC24AVCMusicClusterInfoBlock4showEv
libffado.so.2:_ZN3AVC24AVCMusicClusterInfoBlock5clearEv
libffado.so.2:_ZN3AVC24AVCMusicClusterInfoBlock7getNameB5cxx11Ev
libffado.so.2:_ZN3AVC24AVCMusicClusterInfoBlock9serializeERN4Util3Cmd12IOSSerializeE
libffado.so.2:_ZN3AVC24AVCMusicClusterInfoBlockC1Ev
libffado.so.2:_ZN3AVC24AVCMusicClusterInfoBlockC2Ev
libffado.so.2:_ZN3AVC24AVCMusicClusterInfoBlockD0Ev
libffado.so.2:_ZN3AVC24AVCMusicClusterInfoBlockD1Ev
libffado.so.2:_ZN3AVC24AVCMusicClusterInfoBlockD2Ev
libffado.so.2:_ZN3AVC24AVCMusicStatusDescriptor11deserializeERN4Util3Cmd14IISDeserializeE
libffado.so.2:_ZN3AVC24AVCMusicStatusDescriptor15getNbMusicPlugsEv
libffado.so.2:_ZN3AVC24AVCMusicStatusDescriptor21getMusicPlugInfoBlockEh
libffado.so.2:_ZN3AVC24AVCMusicStatusDescriptor23getSubunitPlugInfoBlockENS_4Plug14EPlugDirectionEh
libffado.so.2:_ZN3AVC24AVCMusicStatusDescriptor9serializeERN4Util3Cmd12IOSSerializeE
libffado.so.2:_ZN3AVC24AVCMusicStatusDescriptorC1EPNS_4UnitEPNS_7SubunitE
libffado.so.2:_ZN3AVC24AVCMusicStatusDescriptorC2EPNS_4UnitEPNS_7SubunitE
libffado.so.2:_ZN3AVC24ExtendedPlugInfoInfoType10initializeEv
libffado.so.2:_ZN3AVC24ExtendedPlugInfoInfoType11deserializeERN4Util3Cmd14IISDeserializeE
libffado.so.2:_ZN3AVC24ExtendedPlugInfoInfoType9serializeERN4Util3Cmd12IOSSerializeE
libffado.so.2:_ZN3AVC24ExtendedPlugInfoInfoTypeC1ENS0_9EInfoTypeE
libffado.so.2:_ZN3AVC24ExtendedPlugInfoInfoTypeC1ERKS0_
libffado.so.2:_ZN3AVC24ExtendedPlugInfoInfoTypeC2ENS0_9EInfoTypeE
libffado.so.2:_ZN3AVC24ExtendedPlugInfoInfoTypeC2ERKS0_
libffado.so.2:_ZN3AVC24ExtendedPlugInfoInfoTypeD0Ev
libffado.so.2:_ZN3AVC24ExtendedPlugInfoInfoTypeD1Ev
libffado.so.2:_ZN3AVC24ExtendedPlugInfoInfoTypeD2Ev
libffado.so.2:_ZN3AVC24FunctionBlockPlugAddress11deserializeERN4Util3Cmd14IISDeserializeE
libffado.so.2:_ZN3AVC24FunctionBlockPlugAddress9serializeERN4Util3Cmd12IOSSerializeE
libffado.so.2:_ZN3AVC24FunctionBlockPlugAddressC1Ehhh
libffado.so.2:_ZN3AVC24FunctionBlockPlugAddressC2Ehhh
libffado.so.2:_ZN3AVC24FunctionBlockPlugAddressD0Ev
libffado.so.2:_ZN3AVC24FunctionBlockPlugAddressD1Ev
libffado.so.2:_ZN3AVC24FunctionBlockPlugAddressD2Ev
libffado.so.2:_ZN3AVC24InputPlugSignalFormatCmd11deserializeERN4Util3Cmd14IISDeserializeE
libffado.so.2:_ZN3AVC24InputPlugSignalFormatCmd9serializeERN4Util3Cmd12IOSSerializeE
libffado.so.2:_ZN3AVC24InputPlugSignalFormatCmdC1ER15Ieee1394Service
libffado.so.2:_ZN3AVC24InputPlugSignalFormatCmdC2ER15Ieee1394Service
libffado.so.2:_ZN3AVC24InputPlugSignalFormatCmdD0Ev
libffado.so.2:_ZN3AVC24InputPlugSignalFormatCmdD1Ev
libffado.so.2:_ZN3AVC24InputPlugSignalFormatCmdD2Ev
libffado.so.2:_ZN3AVC25OutputPlugSignalFormatCmd11deserializeERN4Util3Cmd14IISDeserializeE
libffado.so.2:_ZN3AVC25OutputPlugSignalFormatCmd9serializeERN4Util3Cmd12IOSSerializeE
libffado.so.2:_ZN3AVC25OutputPlugSignalFormatCmdC1ER15Ieee1394Service
libffado.so.2:_ZN3AVC25OutputPlugSignalFormatCmdC2ER15Ieee1394Service
libffado.so.2:_ZN3AVC25OutputPlugSignalFormatCmdD0Ev
libffado.so.2:_ZN3AVC25OutputPlugSignalFormatCmdD1Ev
libffado.so.2:_ZN3AVC25OutputPlugSignalFormatCmdD2Ev
libffado.so.2:_ZN3AVC25avPlugAddressTypeToStringENS_4Plug16EPlugAddressTypeE
libffado.so.2:_ZN3AVC25convertESamplingFrequencyENS_18ESamplingFrequencyE
libffado.so.2:_ZN3AVC26AVCAudioClusterInformation11deserializeERN4Util3Cmd14IISDeserializeE
libffado.so.2:_ZN3AVC26AVCAudioClusterInformation9serializeERN4Util3Cmd12IOSSerializeE
libffado.so.2:_ZN3AVC26FunctionBlockFeatureVolume11deserializeERN4Util3Cmd14IISDeserializeE
libffado.so.2:_ZN3AVC26FunctionBlockFeatureVolume9serializeERN4Util3Cmd12IOSSerializeE
libffado.so.2:_ZN3AVC26FunctionBlockFeatureVolumeC1ERKS0_
libffado.so.2:_ZN3AVC26FunctionBlockFeatureVolumeC1Ev
libffado.so.2:_ZN3AVC26FunctionBlockFeatureVolumeC2ERKS0_
libffado.so.2:_ZN3AVC26FunctionBlockFeatureVolumeC2Ev
libffado.so.2:_ZN3AVC26FunctionBlockFeatureVolumeD0Ev
libffado.so.2:_ZN3AVC26FunctionBlockFeatureVolumeD1Ev
libffado.so.2:_ZN3AVC26FunctionBlockFeatureVolumeD2Ev
libffado.so.2:_ZN3AVC27ExtendedSubunitInfoPageData11deserializeERN4Util3Cmd14IISDeserializeE
libffado.so.2:_ZN3AVC27ExtendedSubunitInfoPageData9serializeERN4Util3Cmd12IOSSerializeE
libffado.so.2:_ZN3AVC27ExtendedSubunitInfoPageDataC1Ev
libffado.so.2:_ZN3AVC27ExtendedSubunitInfoPageDataC2Ev
libffado.so.2:_ZN3AVC27ExtendedSubunitInfoPageDataD0Ev
libffado.so.2:_ZN3AVC27ExtendedSubunitInfoPageDataD1Ev
libffado.so.2:_ZN3AVC27ExtendedSubunitInfoPageDataD2Ev
libffado.so.2:_ZN3AVC28AVCAudioIdentifierDescriptor11deserializeERN4Util3Cmd14IISDeserializeE
libffado.so.2:_ZN3AVC28AVCAudioIdentifierDescriptor9serializeERN4Util3Cmd12IOSSerializeE
libffado.so.2:_ZN3AVC28AVCAudioIdentifierDescriptorC1EPNS_4UnitEPNS_7SubunitE
libffado.so.2:_ZN3AVC28AVCAudioIdentifierDescriptorC2EPNS_4UnitEPNS_7SubunitE
libffado.so.2:_ZN3AVC28AVCMusicSubunitPlugInfoBlock11deserializeERN4Util3Cmd14IISDeserializeE
libffado.so.2:_ZN3AVC28AVCMusicSubunitPlugInfoBlock5clearEv
libffado.so.2:_ZN3AVC28AVCMusicSubunitPlugInfoBlock7getNameB5cxx11Ev
libffado.so.2:_ZN3AVC28AVCMusicSubunitPlugInfoBlock9serializeERN4Util3Cmd12IOSSerializeE
libffado.so.2:_ZN3AVC28AVCMusicSubunitPlugInfoBlockC1Ev
libffado.so.2:_ZN3AVC28AVCMusicSubunitPlugInfoBlockC2Ev
libffado.so.2:_ZN3AVC28AVCMusicSubunitPlugInfoBlockD0Ev
libffado.so.2:_ZN3AVC28AVCMusicSubunitPlugInfoBlockD1Ev
libffado.so.2:_ZN3AVC28AVCMusicSubunitPlugInfoBlockD2Ev
libffado.so.2:_ZN3AVC28FormatInformationStreamsSync11deserializeERN4Util3Cmd14IISDeserializeE
libffado.so.2:_ZN3AVC28FormatInformationStreamsSync9serializeERN4Util3Cmd12IOSSerializeE
libffado.so.2:_ZN3AVC28FormatInformationStreamsSyncC1Ev
libffado.so.2:_ZN3AVC28FormatInformationStreamsSyncC2Ev
libffado.so.2:_ZN3AVC28FunctionBlockProcessingMixer11deserializeERN4Util3Cmd14IISDeserializeE
libffado.so.2:_ZN3AVC28FunctionBlockProcessingMixer9serializeERN4Util3Cmd12IOSSerializeE
libffado.so.2:_ZN3AVC28FunctionBlockProcessingMixerC1ERKS0_
libffado.so.2:_ZN3AVC28FunctionBlockProcessingMixerC1Ev
libffado.so.2:_ZN3AVC28FunctionBlockProcessingMixerC2ERKS0_
libffado.so.2:_ZN3AVC28FunctionBlockProcessingMixerC2Ev
libffado.so.2:_ZN3AVC28FunctionBlockProcessingMixerD0Ev
libffado.so.2:_ZN3AVC28FunctionBlockProcessingMixerD1Ev
libffado.so.2:_ZN3AVC28FunctionBlockProcessingMixerD2Ev
libffado.so.2:_ZN3AVC29FunctionBlockFeatureLRBalance11deserializeERN4Util3Cmd14IISDeserializeE
libffado.so.2:_ZN3AVC29FunctionBlockFeatureLRBalance9serializeERN4Util3Cmd12IOSSerializeE
libffado.so.2:_ZN3AVC29FunctionBlockFeatureLRBalanceC1ERKS0_
libffado.so.2:_ZN3AVC29FunctionBlockFeatureLRBalanceC1Ev
libffado.so.2:_ZN3AVC29FunctionBlockFeatureLRBalanceC2ERKS0_
libffado.so.2:_ZN3AVC29FunctionBlockFeatureLRBalanceC2Ev
libffado.so.2:_ZN3AVC29FunctionBlockFeatureLRBalanceD0Ev
libffado.so.2:_ZN3AVC29FunctionBlockFeatureLRBalanceD1Ev
libffado.so.2:_ZN3AVC29FunctionBlockFeatureLRBalanceD2Ev
libffado.so.2:_ZN3AVC30AVCMusicGeneralStatusInfoBlock11deserializeERN4Util3Cmd14IISDeserializeE
libffado.so.2:_ZN3AVC30AVCMusicGeneralStatusInfoBlock9serializeERN4Util3Cmd12IOSSerializeE
libffado.so.2:_ZN3AVC30AVCMusicGeneralStatusInfoBlockC1Ev
libffado.so.2:_ZN3AVC30AVCMusicGeneralStatusInfoBlockC2Ev
libffado.so.2:_ZN3AVC30AVCMusicRoutingStatusInfoBlock11deserializeERN4Util3Cmd14IISDeserializeE
libffado.so.2:_ZN3AVC30AVCMusicRoutingStatusInfoBlock21getMusicPlugInfoBlockEh
libffado.so.2:_ZN3AVC30AVCMusicRoutingStatusInfoBlock23getSubunitPlugInfoBlockENS_4Plug14EPlugDirectionEh
libffado.so.2:_ZN3AVC30AVCMusicRoutingStatusInfoBlock5clearEv
libffado.so.2:_ZN3AVC30AVCMusicRoutingStatusInfoBlock9serializeERN4Util3Cmd12IOSSerializeE
libffado.so.2:_ZN3AVC30AVCMusicRoutingStatusInfoBlockC1Ev
libffado.so.2:_ZN3AVC30AVCMusicRoutingStatusInfoBlockC2Ev
libffado.so.2:_ZN3AVC30AVCMusicRoutingStatusInfoBlockD0Ev
libffado.so.2:_ZN3AVC30AVCMusicRoutingStatusInfoBlockD1Ev
libffado.so.2:_ZN3AVC30AVCMusicRoutingStatusInfoBlockD2Ev
libffado.so.2:_ZN3AVC30plugAddressAddressModeToStringENS_11PlugAddress16EPlugAddressModeE
libffado.so.2:_ZN3AVC31UnitPlugSpecificDataPlugAddress11deserializeERN4Util3Cmd14IISDeserializeE
libffado.so.2:_ZN3AVC31UnitPlugSpecificDataPlugAddress9serializeERN4Util3Cmd12IOSSerializeE
libffado.so.2:_ZN3AVC31UnitPlugSpecificDataPlugAddressC1ENS0_9EPlugTypeEh
libffado.so.2:_ZN3AVC31UnitPlugSpecificDataPlugAddressC2ENS0_9EPlugTypeEh
libffado.so.2:_ZN3AVC31UnitPlugSpecificDataPlugAddressD0Ev
libffado.so.2:_ZN3AVC31UnitPlugSpecificDataPlugAddressD1Ev
libffado.so.2:_ZN3AVC31UnitPlugSpecificDataPlugAddressD2Ev
libffado.so.2:_ZN3AVC32FormatInformationStreamsCompound11deserializeERN4Util3Cmd14IISDeserializeE
libffado.so.2:_ZN3AVC32FormatInformationStreamsCompound9serializeERN4Util3Cmd12IOSSerializeE
libffado.so.2:_ZN3AVC32FormatInformationStreamsCompoundC1Ev
libffado.so.2:_ZN3AVC32FormatInformationStreamsCompoundC2Ev
libffado.so.2:_ZN3AVC32FormatInformationStreamsCompoundD0Ev
libffado.so.2:_ZN3AVC32FormatInformationStreamsCompoundD1Ev
libffado.so.2:_ZN3AVC32FormatInformationStreamsCompoundD2Ev
libffado.so.2:_ZN3AVC32extendedPlugInfoInfoTypeToStringEh
libffado.so.2:_ZN3AVC32extendedPlugInfoPlugTypeToStringEh
libffado.so.2:_ZN3AVC32plugAddressPlugDirectionToStringENS_11PlugAddress14EPlugDirectionE
libffado.so.2:_ZN3AVC33AVCMusicOutputPlugStatusInfoBlock11deserializeERN4Util3Cmd14IISDeserializeE
libffado.so.2:_ZN3AVC33AVCMusicOutputPlugStatusInfoBlock9serializeERN4Util3Cmd12IOSSerializeE
libffado.so.2:_ZN3AVC33AVCMusicOutputPlugStatusInfoBlockC1Ev
libffado.so.2:_ZN3AVC33AVCMusicOutputPlugStatusInfoBlockC2Ev
libffado.so.2:_ZN3AVC34SubunitPlugSpecificDataPlugAddress11deserializeERN4Util3Cmd14IISDeserializeE
libffado.so.2:_ZN3AVC34SubunitPlugSpecificDataPlugAddress9serializeERN4Util3Cmd12IOSSerializeE
libffado.so.2:_ZN3AVC34SubunitPlugSpecificDataPlugAddressC1ENS_12ESubunitTypeEhh
libffado.so.2:_ZN3AVC34SubunitPlugSpecificDataPlugAddressC2ENS_12ESubunitTypeEhh
libffado.so.2:_ZN3AVC34SubunitPlugSpecificDataPlugAddressD0Ev
libffado.so.2:_ZN3AVC34SubunitPlugSpecificDataPlugAddressD1Ev
libffado.so.2:_ZN3AVC34SubunitPlugSpecificDataPlugAddressD2Ev
libffado.so.2:_ZN3AVC35AVCAudioSubunitDependentInformation11deserializeERN4Util3Cmd14IISDeserializeE
libffado.so.2:_ZN3AVC35AVCAudioSubunitDependentInformation9serializeERN4Util3Cmd12IOSSerializeE
libffado.so.2:_ZN3AVC36ExtendedPlugInfoPlugNameSpecificData11deserializeERN4Util3Cmd14IISDeserializeE
libffado.so.2:_ZN3AVC36ExtendedPlugInfoPlugNameSpecificData9serializeERN4Util3Cmd12IOSSerializeE
libffado.so.2:_ZN3AVC36ExtendedPlugInfoPlugNameSpecificDataC1Ev
libffado.so.2:_ZN3AVC36ExtendedPlugInfoPlugNameSpecificDataC2Ev
libffado.so.2:_ZN3AVC36ExtendedPlugInfoPlugNameSpecificDataD0Ev
libffado.so.2:_ZN3AVC36ExtendedPlugInfoPlugNameSpecificDataD1Ev
libffado.so.2:_ZN3AVC36ExtendedPlugInfoPlugNameSpecificDataD2Ev
libffado.so.2:_ZN3AVC36ExtendedPlugInfoPlugTypeSpecificData11deserializeERN4Util3Cmd14IISDeserializeE
libffado.so.2:_ZN3AVC36ExtendedPlugInfoPlugTypeSpecificData9serializeERN4Util3Cmd12IOSSerializeE
libffado.so.2:_ZN3AVC36ExtendedPlugInfoPlugTypeSpecificDataC1ENS0_25EExtendedPlugInfoPlugTypeE
libffado.so.2:_ZN3AVC36ExtendedPlugInfoPlugTypeSpecificDataC2ENS0_25EExtendedPlugInfoPlugTypeE
libffado.so.2:_ZN3AVC36ExtendedPlugInfoPlugTypeSpecificDataD0Ev
libffado.so.2:_ZN3AVC36ExtendedPlugInfoPlugTypeSpecificDataD1Ev
libffado.so.2:_ZN3AVC36ExtendedPlugInfoPlugTypeSpecificDataD2Ev
libffado.so.2:_ZN3AVC36FunctionBlockProcessingEnhancedMixer11deserializeERN4Util3Cmd14IISDeserializeE
libffado.so.2:_ZN3AVC36FunctionBlockProcessingEnhancedMixer9serializeERN4Util3Cmd12IOSSerializeE
libffado.so.2:_ZN3AVC36FunctionBlockProcessingEnhancedMixerC1ERKS0_
libffado.so.2:_ZN3AVC36FunctionBlockProcessingEnhancedMixerC1Ev
libffado.so.2:_ZN3AVC36FunctionBlockProcessingEnhancedMixerC2ERKS0_
libffado.so.2:_ZN3AVC36FunctionBlockProcessingEnhancedMixerC2Ev
libffado.so.2:_ZN3AVC36FunctionBlockProcessingEnhancedMixerD0Ev
libffado.so.2:_ZN3AVC36FunctionBlockProcessingEnhancedMixerD1Ev
libffado.so.2:_ZN3AVC36FunctionBlockProcessingEnhancedMixerD2Ev
libffado.so.2:_ZN3AVC36UndefinedPlugSpecificDataPlugAddress11deserializeERN4Util3Cmd14IISDeserializeE
libffado.so.2:_ZN3AVC36UndefinedPlugSpecificDataPlugAddress9serializeERN4Util3Cmd12IOSSerializeE
libffado.so.2:_ZN3AVC36UndefinedPlugSpecificDataPlugAddressC1Ev
libffado.so.2:_ZN3AVC36UndefinedPlugSpecificDataPlugAddressC2Ev
libffado.so.2:_ZN3AVC36UndefinedPlugSpecificDataPlugAddressD0Ev
libffado.so.2:_ZN3AVC36UndefinedPlugSpecificDataPlugAddressD1Ev
libffado.so.2:_ZN3AVC36UndefinedPlugSpecificDataPlugAddressD2Ev
libffado.so.2:_ZN3AVC37ExtendedPlugInfoPlugInputSpecificData11deserializeERN4Util3Cmd14IISDeserializeE
libffado.so.2:_ZN3AVC37ExtendedPlugInfoPlugInputSpecificData9serializeERN4Util3Cmd12IOSSerializeE
libffado.so.2:_ZN3AVC37ExtendedPlugInfoPlugInputSpecificDataC1ERKS0_
libffado.so.2:_ZN3AVC37ExtendedPlugInfoPlugInputSpecificDataC1Ev
libffado.so.2:_ZN3AVC37ExtendedPlugInfoPlugInputSpecificDataC2ERKS0_
libffado.so.2:_ZN3AVC37ExtendedPlugInfoPlugInputSpecificDataC2Ev
libffado.so.2:_ZN3AVC37ExtendedPlugInfoPlugInputSpecificDataD0Ev
libffado.so.2:_ZN3AVC37ExtendedPlugInfoPlugInputSpecificDataD1Ev
libffado.so.2:_ZN3AVC37ExtendedPlugInfoPlugInputSpecificDataD2Ev
libffado.so.2:_ZN3AVC38ExtendedPlugInfoPlugOutputSpecificData11deserializeERN4Util3Cmd14IISDeserializeE
libffado.so.2:_ZN3AVC38ExtendedPlugInfoPlugOutputSpecificData9serializeERN4Util3Cmd12IOSSerializeE
libffado.so.2:_ZN3AVC38ExtendedPlugInfoPlugOutputSpecificDataC1ERKS0_
libffado.so.2:_ZN3AVC38ExtendedPlugInfoPlugOutputSpecificDataC1Ev
libffado.so.2:_ZN3AVC38ExtendedPlugInfoPlugOutputSpecificDataC2ERKS0_
libffado.so.2:_ZN3AVC38ExtendedPlugInfoPlugOutputSpecificDataC2Ev
libffado.so.2:_ZN3AVC38ExtendedPlugInfoPlugOutputSpecificDataD0Ev
libffado.so.2:_ZN3AVC38ExtendedPlugInfoPlugOutputSpecificDataD1Ev
libffado.so.2:_ZN3AVC38ExtendedPlugInfoPlugOutputSpecificDataD2Ev
libffado.so.2:_ZN3AVC39ExtendedPlugInfoClusterInfoSpecificData11deserializeERN4Util3Cmd14IISDeserializeE
libffado.so.2:_ZN3AVC39ExtendedPlugInfoClusterInfoSpecificData9serializeERN4Util3Cmd12IOSSerializeE
libffado.so.2:_ZN3AVC39ExtendedPlugInfoClusterInfoSpecificDataC1Ev
libffado.so.2:_ZN3AVC39ExtendedPlugInfoClusterInfoSpecificDataC2Ev
libffado.so.2:_ZN3AVC39ExtendedPlugInfoClusterInfoSpecificDataD0Ev
libffado.so.2:_ZN3AVC39ExtendedPlugInfoClusterInfoSpecificDataD1Ev
libffado.so.2:_ZN3AVC39ExtendedPlugInfoClusterInfoSpecificDataD2Ev
libffado.so.2:_ZN3AVC40FunctionBlockPlugSpecificDataPlugAddress11deserializeERN4Util3Cmd14IISDeserializeE
libffado.so.2:_ZN3AVC40FunctionBlockPlugSpecificDataPlugAddress9serializeERN4Util3Cmd12IOSSerializeE
libffado.so.2:_ZN3AVC40FunctionBlockPlugSpecificDataPlugAddressC1ENS_12ESubunitTypeEhhhh
libffado.so.2:_ZN3AVC40FunctionBlockPlugSpecificDataPlugAddressC2ENS_12ESubunitTypeEhhhh
libffado.so.2:_ZN3AVC40FunctionBlockPlugSpecificDataPlugAddressD0Ev
libffado.so.2:_ZN3AVC40FunctionBlockPlugSpecificDataPlugAddressD1Ev
libffado.so.2:_ZN3AVC40FunctionBlockPlugSpecificDataPlugAddressD2Ev
libffado.so.2:_ZN3AVC41AVCAudioConfigurationDependentInformation11deserializeERN4Util3Cmd14IISDeserializeE
libffado.so.2:_ZN3AVC41AVCAudioConfigurationDependentInformation9serializeERN4Util3Cmd12IOSSerializeE
libffado.so.2:_ZN3AVC43ExtendedPlugInfoPlugChannelNameSpecificData11deserializeERN4Util3Cmd14IISDeserializeE
libffado.so.2:_ZN3AVC43ExtendedPlugInfoPlugChannelNameSpecificData9serializeERN4Util3Cmd12IOSSerializeE
libffado.so.2:_ZN3AVC43ExtendedPlugInfoPlugChannelNameSpecificDataC1Ev
libffado.so.2:_ZN3AVC43ExtendedPlugInfoPlugChannelNameSpecificDataC2Ev
libffado.so.2:_ZN3AVC43ExtendedPlugInfoPlugChannelNameSpecificDataD0Ev
libffado.so.2:_ZN3AVC43ExtendedPlugInfoPlugChannelNameSpecificDataD1Ev
libffado.so.2:_ZN3AVC43ExtendedPlugInfoPlugChannelNameSpecificDataD2Ev
libffado.so.2:_ZN3AVC43extendedPlugInfoClusterInfoPortTypeToStringEh
libffado.so.2:_ZN3AVC47ExtendedPlugInfoPlugChannelPositionSpecificData11deserializeERN4Util3Cmd14IISDeserializeE
libffado.so.2:_ZN3AVC47ExtendedPlugInfoPlugChannelPositionSpecificData9serializeERN4Util3Cmd12IOSSerializeE
libffado.so.2:_ZN3AVC47ExtendedPlugInfoPlugChannelPositionSpecificDataC1Ev
libffado.so.2:_ZN3AVC47ExtendedPlugInfoPlugChannelPositionSpecificDataC2Ev
libffado.so.2:_ZN3AVC47ExtendedPlugInfoPlugChannelPositionSpecificDataD0Ev
libffado.so.2:_ZN3AVC47ExtendedPlugInfoPlugChannelPositionSpecificDataD1Ev
libffado.so.2:_ZN3AVC47ExtendedPlugInfoPlugChannelPositionSpecificDataD2Ev
libffado.so.2:_ZN3AVC48ExtendedPlugInfoPlugNumberOfChannelsSpecificData11deserializeERN4Util3Cmd14IISDeserializeE
libffado.so.2:_ZN3AVC48ExtendedPlugInfoPlugNumberOfChannelsSpecificData9serializeERN4Util3Cmd12IOSSerializeE
libffado.so.2:_ZN3AVC48ExtendedPlugInfoPlugNumberOfChannelsSpecificDataC1Ev
libffado.so.2:_ZN3AVC48ExtendedPlugInfoPlugNumberOfChannelsSpecificDataC2Ev
libffado.so.2:_ZN3AVC48ExtendedPlugInfoPlugNumberOfChannelsSpecificDataD0Ev
libffado.so.2:_ZN3AVC48ExtendedPlugInfoPlugNumberOfChannelsSpecificDataD1Ev
libffado.so.2:_ZN3AVC48ExtendedPlugInfoPlugNumberOfChannelsSpecificDataD2Ev
libffado.so.2:_ZN3AVC4Plug11deserializeENSt7__cxx1112basic_stringIcSt11char_traitsIcESaIcEEERN4Util13IODeserializeERNS_4UnitERNS_11PlugManagerE
libffado.so.2:_ZN3AVC4Plug12discoverNameEv
libffado.so.2:_ZN3AVC4Plug13setConnectionERS0_
libffado.so.2:_ZN3AVC4Plug13setSampleRateEi
libffado.so.2:_ZN3AVC4Plug15getSignalSourceEv
libffado.so.2:_ZN3AVC4Plug15setNrOfChannelsEi
libffado.so.2:_ZN3AVC4Plug15setVerboseLevelEi
libffado.so.2:_ZN3AVC4Plug16discoverPlugTypeEv
libffado.so.2:_ZN3AVC4Plug16plugTypeToStringB5cxx11ENS0_9EPlugTypeE
libffado.so.2:_ZN3AVC4Plug17addPlugConnectionERSt6vectorIPS0_SaIS2_EERS0_
libffado.so.2:_ZN3AVC4Plug17propagateFromPlugEPS0_
libffado.so.2:_ZN3AVC4Plug18initFromDescriptorEv
libffado.so.2:_ZN3AVC4Plug18inquireConnnectionERS0_
libffado.so.2:_ZN3AVC4Plug18supportsSampleRateEi
libffado.so.2:_ZN3AVC4Plug19discoverChannelNameEv
libffado.so.2:_ZN3AVC4Plug19discoverClusterInfoEv
libffado.so.2:_ZN3AVC4Plug19discoverConnectionsEv
libffado.so.2:_ZN3AVC4Plug20convertPlugDirectionENS0_14EPlugDirectionE
libffado.so.2:_ZN3AVC4Plug20discoverNoOfChannelsEv
libffado.so.2:_ZN3AVC4Plug20discoverStreamFormatEv
libffado.so.2:_ZN3AVC4Plug21plugDirectionToStringB5cxx11ENS0_14EPlugDirectionE
libffado.so.2:_ZN3AVC4Plug22deserializeConnectionsENSt7__cxx1112basic_stringIcSt11char_traitsIcESaIcEEERN4Util13IODeserializeE
libffado.so.2:_ZN3AVC4Plug22deserializeFormatInfosENSt7__cxx1112basic_stringIcSt11char_traitsIcESaIcEEERN4Util13IODeserializeE
libffado.so.2:_ZN3AVC4Plug23debugOutputClusterInfosEi
libffado.so.2:_ZN3AVC4Plug23deserializeChannelInfosENSt7__cxx1112basic_stringIcSt11char_traitsIcESaIcEEERN4Util13IODeserializeERNS0_11ClusterInfoE
libffado.so.2:_ZN3AVC4Plug23deserializeClusterInfosENSt7__cxx1112basic_stringIcSt11char_traitsIcESaIcEEERN4Util13IODeserializeE
libffado.so.2:_ZN3AVC4Plug23discoverChannelPositionEv
libffado.so.2:_ZN3AVC4Plug23plugAddressTypeToStringB5cxx11ENS0_16EPlugAddressTypeE
libffado.so.2:_ZN3AVC4Plug24deserializeUpdateSubunitEv
libffado.so.2:_ZN3AVC4Plug24discoverConnectionsInputEv
libffado.so.2:_ZN3AVC4Plug25discoverConnectionsOutputEv
libffado.so.2:_ZN3AVC4Plug25setSrcPlugAddrToSignalCmdEv
libffado.so.2:_ZN3AVC4Plug26propagateFromConnectedPlugEv
libffado.so.2:_ZN3AVC4Plug26setDestPlugAddrToSignalCmdERNS_15SignalSourceCmdERS0_
libffado.so.2:_ZN3AVC4Plug28getPlugDefinedBySpecificDataEPNS_31UnitPlugSpecificDataPlugAddressEPNS_34SubunitPlugSpecificDataPlugAddressEPNS_40FunctionBlockPlugSpecificDataPlugAddressE
libffado.so.2:_ZN3AVC4Plug28setPlugAddrToStreamFormatCmdENS_23ExtendedStreamFormatCmd12ESubFunctionE
libffado.so.2:_ZN3AVC4Plug30discoverSupportedStreamFormatsEv
libffado.so.2:_ZN3AVC4Plug35discoverConnectionsFromSpecificDataENS0_14EPlugDirectionEPNS_23PlugAddressSpecificDataERSt6vectorIPS0_SaIS5_EE
libffado.so.2:_ZN3AVC4Plug8discoverEv
libffado.so.2:_ZN3AVC4PlugC1EPNS_4UnitEPNS_7SubunitEhhNS0_16EPlugAddressTypeENS0_14EPlugDirectionEh
libffado.so.2:_ZN3AVC4PlugC1EPNS_4UnitEPNS_7SubunitEhhNS0_16EPlugAddressTypeENS0_14EPlugDirectionEhi
libffado.so.2:_ZN3AVC4PlugC1ERKS0_
libffado.so.2:_ZN3AVC4PlugC1Ev
libffado.so.2:_ZN3AVC4PlugC2EPNS_4UnitEPNS_7SubunitEhhNS0_16EPlugAddressTypeENS0_14EPlugDirectionEh
libffado.so.2:_ZN3AVC4PlugC2EPNS_4UnitEPNS_7SubunitEhhNS0_16EPlugAddressTypeENS0_14EPlugDirectionEhi
libffado.so.2:_ZN3AVC4PlugC2ERKS0_
libffado.so.2:_ZN3AVC4PlugC2Ev
libffado.so.2:_ZN3AVC4PlugD0Ev
libffado.so.2:_ZN3AVC4PlugD1Ev
libffado.so.2:_ZN3AVC4PlugD2Ev
libffado.so.2:_ZN3AVC4Unit10createPlugEPS0_PNS_7SubunitEhhNS_4Plug16EPlugAddressTypeENS4_14EPlugDirectionEhi
libffado.so.2:_ZN3AVC4Unit11deserializeENSt7__cxx1112basic_stringIcSt11char_traitsIcESaIcEEERN4Util13IODeserializeE
libffado.so.2:_ZN3AVC4Unit11getPlugByIdERSt6vectorIPNS_4PlugESaIS3_EENS2_14EPlugDirectionEi
libffado.so.2:_ZN3AVC4Unit11getSyncPlugEiNS_4Plug14EPlugDirectionE
libffado.so.2:_ZN3AVC4Unit13createSubunitERS0_NS_12ESubunitTypeEh
libffado.so.2:_ZN3AVC4Unit13discoverPlugsEv
libffado.so.2:_ZN3AVC4Unit13setActiveSyncERKNS0_8SyncInfoE
libffado.so.2:_ZN3AVC4Unit14getPlugsByTypeERSt6vectorIPNS_4PlugESaIS3_EENS2_14EPlugDirectionENS2_9EPlugTypeE
libffado.so.2:_ZN3AVC4Unit15setVerboseLevelEi
libffado.so.2:_ZN3AVC4Unit16discoverPlugsPCRENS_4Plug14EPlugDirectionEh
libffado.so.2:_ZN3AVC4Unit17discoverSyncModesEv
libffado.so.2:_ZN3AVC4Unit17enumerateSubUnitsEv
libffado.so.2:_ZN3AVC4Unit17getActiveSyncInfoEv
libffado.so.2:_ZN3AVC4Unit17propagatePlugInfoEv
libffado.so.2:_ZN3AVC4Unit21discoverPlugsExternalENS_4Plug14EPlugDirectionEh
libffado.so.2:_ZN3AVC4Unit21rediscoverConnectionsEv
libffado.so.2:_ZN3AVC4Unit23discoverPlugConnectionsEv
libffado.so.2:_ZN3AVC4Unit25deserializeSyncInfoVectorENSt7__cxx1112basic_stringIcSt11char_traitsIcESaIcEEERN4Util13IODeserializeERSt6vectorINS0_8SyncInfoESaISB_EE
libffado.so.2:_ZN3AVC4Unit31discoverSubUnitsPlugConnectionsEv
libffado.so.2:_ZN3AVC4Unit32checkSyncConnectionsAndAddToListERSt6vectorIPNS_4PlugESaIS3_EES6_NSt7__cxx1112basic_stringIcSt11char_traitsIcESaIcEEE
libffado.so.2:_ZN3AVC4Unit4showEv
libffado.so.2:_ZN3AVC4Unit5cleanEv
libffado.so.2:_ZN3AVC4Unit8discoverEv
libffado.so.2:_ZN3AVC4UnitC1Ev
libffado.so.2:_ZN3AVC4UnitC2Ev
libffado.so.2:_ZN3AVC4UnitD0Ev
libffado.so.2:_ZN3AVC4UnitD1Ev
libffado.so.2:_ZN3AVC4UnitD2Ev
libffado.so.2:_ZN3AVC7Subunit10createPlugEPNS_4UnitEPS0_hhNS_4Plug16EPlugAddressTypeENS4_14EPlugDirectionEh
libffado.so.2:_ZN3AVC7Subunit11deserializeENSt7__cxx1112basic_stringIcSt11char_traitsIcESaIcEEERN4Util13IODeserializeERNS_4UnitE
libffado.so.2:_ZN3AVC7Subunit13discoverPlugsENS_4Plug14EPlugDirectionEh
libffado.so.2:_ZN3AVC7Subunit13discoverPlugsEv
libffado.so.2:_ZN3AVC7Subunit15setVerboseLevelEi
libffado.so.2:_ZN3AVC7Subunit17deserializeUpdateENSt7__cxx1112basic_stringIcSt11char_traitsIcESaIcEEERN4Util13IODeserializeE
libffado.so.2:_ZN3AVC7Subunit19discoverConnectionsEv
libffado.so.2:_ZN3AVC7Subunit22initPlugFromDescriptorERNS_4PlugE
libffado.so.2:_ZN3AVC7Subunit7addPlugERNS_4PlugE
libffado.so.2:_ZN3AVC7Subunit7getPlugENS_4Plug14EPlugDirectionEh
libffado.so.2:_ZN3AVC7Subunit8discoverEv
libffado.so.2:_ZN3AVC7SubunitC1ERNS_4UnitENS_12ESubunitTypeEh
libffado.so.2:_ZN3AVC7SubunitC1Ev
libffado.so.2:_ZN3AVC7SubunitC2ERNS_4UnitENS_12ESubunitTypeEh
libffado.so.2:_ZN3AVC7SubunitC2Ev
libffado.so.2:_ZN3AVC7SubunitD0Ev
libffado.so.2:_ZN3AVC7SubunitD1Ev
libffado.so.2:_ZN3AVC7SubunitD2Ev
libffado.so.2:_ZN3AVClsERSoNS_16StreamFormatInfoE
libffado.so.2:_ZN3AVClsERSoNS_18ESamplingFrequencyE
libffado.so.2:_ZN3AVClsERSoNS_32FormatInformationStreamsCompoundE
libffado.so.2:_ZN3Rme15RmeSettingsCtrl8getValueEv
libffado.so.2:_ZN3Rme15RmeSettingsCtrl8setValueEi
libffado.so.2:_ZN3Rme15RmeSettingsCtrlC1ERNS_6DeviceEjj
libffado.so.2:_ZN3Rme15RmeSettingsCtrlC1ERNS_6DeviceEjjNSt7__cxx1112basic_stringIcSt11char_traitsIcESaIcEEES8_S8_
libffado.so.2:_ZN3Rme15RmeSettingsCtrlC2ERNS_6DeviceEjj
libffado.so.2:_ZN3Rme15RmeSettingsCtrlC2ERNS_6DeviceEjjNSt7__cxx1112basic_stringIcSt11char_traitsIcESaIcEEES8_S8_
libffado.so.2:_ZN3Rme21RmeSettingsMatrixCtrl10getColNameB5cxx11Ei
libffado.so.2:_ZN3Rme21RmeSettingsMatrixCtrl10getRowNameB5cxx11Ei
libffado.so.2:_ZN3Rme21RmeSettingsMatrixCtrl11getColCountEv
libffado.so.2:_ZN3Rme21RmeSettingsMatrixCtrl11getRowCountEv
libffado.so.2:_ZN3Rme21RmeSettingsMatrixCtrl4showEv
libffado.so.2:_ZN3Rme21RmeSettingsMatrixCtrl8getValueEii
libffado.so.2:_ZN3Rme21RmeSettingsMatrixCtrl8setValueEiid
libffado.so.2:_ZN3Rme21RmeSettingsMatrixCtrlC1ERNS_6DeviceEj
libffado.so.2:_ZN3Rme21RmeSettingsMatrixCtrlC1ERNS_6DeviceEjNSt7__cxx1112basic_stringIcSt11char_traitsIcESaIcEEE
libffado.so.2:_ZN3Rme21RmeSettingsMatrixCtrlC2ERNS_6DeviceEj
libffado.so.2:_ZN3Rme21RmeSettingsMatrixCtrlC2ERNS_6DeviceEjNSt7__cxx1112basic_stringIcSt11char_traitsIcESaIcEEE
libffado.so.2:_ZN3Rme6Device10buildMixerEv
libffado.so.2:_ZN3Rme6Device10getAmpGainEj
libffado.so.2:_ZN3Rme6Device10getPhantomEj
libffado.so.2:_ZN3Rme6Device10getSyncRefEv
libffado.so.2:_ZN3Rme6Device10getTcoLockEv
libffado.so.2:_ZN3Rme6Device10getTcoPullEv
libffado.so.2:_ZN3Rme6Device10read_flashEmPjj
libffado.so.2:_ZN3Rme6Device10setAmpGainEji
libffado.so.2:_ZN3Rme6Device10setPhantomEjj
libffado.so.2:_ZN3Rme6Device10setSyncRefEi
libffado.so.2:_ZN3Rme6Device10setTcoPullEi
libffado.so.2:_ZN3Rme6Device10showDeviceEv
libffado.so.2:_ZN3Rme6Device10writeBlockEmPjj
libffado.so.2:_ZN3Rme6Device11addDirPortsEN9Streaming4Port11E_DirectionE
libffado.so.2:_ZN3Rme6Device11config_lockEv
libffado.so.2:_ZN3Rme6Device11erase_flashEj
libffado.so.2:_ZN3Rme6Device11write_flashEmPjj
libffado.so.2:_ZN3Rme6Device12createDeviceER13DeviceManagerSt10shared_ptrI9ConfigRomE
libffado.so.2:_ZN3Rme6Device12destroyMixerEv
libffado.so.2:_ZN3Rme6Device12getClockModeEv
libffado.so.2:_ZN3Rme6Device12getMixerGainEjjj
libffado.so.2:_ZN3Rme6Device12get_revisionEPj
libffado.so.2:_ZN3Rme6Device12readRegisterEm
libffado.so.2:_ZN3Rme6Device12setClockModeEi
libffado.so.2:_ZN3Rme6Device12setMixerGainEjjji
libffado.so.2:_ZN3Rme6Device13config_unlockEv
libffado.so.2:_ZN3Rme6Device13getInputLevelEv
libffado.so.2:_ZN3Rme6Device13getMixerFlagsEjjjj
libffado.so.2:_ZN3Rme6Device13getTcoSyncSrcEv
libffado.so.2:_ZN3Rme6Device13getTcoWordClkEv
libffado.so.2:_ZN3Rme6Device13init_hardwareEv
libffado.so.2:_ZN3Rme6Device13setInputLevelEj
libffado.so.2:_ZN3Rme6Device13setMixerFlagsEjjjji
libffado.so.2:_ZN3Rme6Device13setTcoSyncSrcEi
libffado.so.2:_ZN3Rme6Device13writeRegisterEmj
libffado.so.2:_ZN3Rme6Device14getInputPadOptEj
libffado.so.2:_ZN3Rme6Device14getInputSourceEj
libffado.so.2:_ZN3Rme6Device14getOutputLevelEv
libffado.so.2:_ZN3Rme6Device14getPhonesLevelEv
libffado.so.2:_ZN3Rme6Device14getStreamCountEv
libffado.so.2:_ZN3Rme6Device14getTcoLtcValidEv
libffado.so.2:_ZN3Rme6Device14read_tco_stateEP14FF_TCO_state_t
libffado.so.2:_ZN3Rme6Device14setInputPadOptEjj
libffado.so.2:_ZN3Rme6Device14setInputSourceEjj
libffado.so.2:_ZN3Rme6Device14setOutputLevelEj
libffado.so.2:_ZN3Rme6Device14setPhonesLevelEj
libffado.so.2:_ZN3Rme6Device15getTcoFrameRateEv
libffado.so.2:_ZN3Rme6Device15getTcoFrequencyEv
libffado.so.2:_ZN3Rme6Device15getTcoVideoTypeEv
libffado.so.2:_ZN3Rme6Device15setDDSFrequencyEi
libffado.so.2:_ZN3Rme6Device15setTcoFrameRateEi
libffado.so.2:_ZN3Rme6Device15wait_while_busyEj
libffado.so.2:_ZN3Rme6Device16dummyClockSourceEv
libffado.so.2:_ZN3Rme6Device16getInputInstrOptEj
libffado.so.2:_ZN3Rme6Device16getTcoSampleRateEv
libffado.so.2:_ZN3Rme6Device16setInputInstrOptEjj
libffado.so.2:_ZN3Rme6Device16setTcoSampleRateEi
libffado.so.2:_ZN3Rme6Device17getBandwidthLimitEv
libffado.so.2:_ZN3Rme6Device17getMixerGainIndexEjj
libffado.so.2:_ZN3Rme6Device17getSpdifInputModeEv
libffado.so.2:_ZN3Rme6Device17getStreamingStateEv
libffado.so.2:_ZN3Rme6Device17getTcoTerminationEv
libffado.so.2:_ZN3Rme6Device17getTcoWordClkConvEv
libffado.so.2:_ZN3Rme6Device17resetForStreamingEv
libffado.so.2:_ZN3Rme6Device17setBandwidthLimitEi
libffado.so.2:_ZN3Rme6Device17setSpdifInputModeEi
libffado.so.2:_ZN3Rme6Device17setTcoTerminationEi
libffado.so.2:_ZN3Rme6Device17setTcoWordClkConvEi
libffado.so.2:_ZN3Rme6Device17stopStreamByIndexEi
libffado.so.2:_ZN3Rme6Device18getConfigurationIdEv
libffado.so.2:_ZN3Rme6Device18getFramesPerPacketEv
libffado.so.2:_ZN3Rme6Device18getTcoLtcDropFrameEv
libffado.so.2:_ZN3Rme6Device18getTcoLtcFrameRateEv
libffado.so.2:_ZN3Rme6Device18getTcoWordClkStateEv
libffado.so.2:_ZN3Rme6Device18get_hardware_stateEP10FF_state_t
libffado.so.2:_ZN3Rme6Device18multiplier_of_freqEj
libffado.so.2:_ZN3Rme6Device18startStreamByIndexEi
libffado.so.2:_ZN3Rme6Device18write_tco_settingsEP17FF_TCO_settings_t
libffado.so.2:_ZN3Rme6Device19getSpdifOutputProOnEv
libffado.so.2:_ZN3Rme6Device19get_hardware_statusEPjS1_
libffado.so.2:_ZN3Rme6Device19setSpdifOutputProOnEi
libffado.so.2:_ZN3Rme6Device19set_hardware_paramsEP22FF_software_settings_t
libffado.so.2:_ZN3Rme6Device20getActiveClockSourceEv
libffado.so.2:_ZN3Rme6Device20getSamplingFrequencyEv
libffado.so.2:_ZN3Rme6Device20setActiveClockSourceEN11FFADODevice11ClockSourceE
libffado.so.2:_ZN3Rme6Device20setSamplingFrequencyEi
libffado.so.2:_ZN3Rme6Device20set_hardware_ampgainEji
libffado.so.2:_ZN3Rme6Device21hardware_is_streamingEv
libffado.so.2:_ZN3Rme6Device21set_hardware_dds_freqEi
libffado.so.2:_ZN3Rme6Device22set_hardware_mixergainEjjji
libffado.so.2:_ZN3Rme6Device23getSpdifOutputIsOpticalEv
libffado.so.2:_ZN3Rme6Device23hardware_init_streamingEjj
libffado.so.2:_ZN3Rme6Device23hardware_stop_streamingEv
libffado.so.2:_ZN3Rme6Device23setSpdifOutputIsOpticalEi
libffado.so.2:_ZN3Rme6Device23set_hardware_output_recEi
libffado.so.2:_ZN3Rme6Device24getSpdifOutputEmphasisOnEv
libffado.so.2:_ZN3Rme6Device24getSpdifOutputNonAudioOnEv
libffado.so.2:_ZN3Rme6Device24getSupportedClockSourcesEv
libffado.so.2:_ZN3Rme6Device24hardware_start_streamingEj
libffado.so.2:_ZN3Rme6Device24setSpdifOutputEmphasisOnEi
libffado.so.2:_ZN3Rme6Device24setSpdifOutputNonAudioOnEi
libffado.so.2:_ZN3Rme6Device25getStreamProcessorByIndexEi
libffado.so.2:_ZN3Rme6Device25set_hardware_channel_muteEii
libffado.so.2:_ZN3Rme6Device26read_device_flash_settingsEP22FF_software_settings_t
libffado.so.2:_ZN3Rme6Device26read_device_mixer_settingsEP22FF_software_settings_t
libffado.so.2:_ZN3Rme6Device27write_device_flash_settingsEP22FF_software_settings_t
libffado.so.2:_ZN3Rme6Device27write_device_mixer_settingsEP22FF_software_settings_t
libffado.so.2:_ZN3Rme6Device29get_hardware_streaming_statusEPjj
libffado.so.2:_ZN3Rme6Device31getSupportedSamplingFrequenciesEv
libffado.so.2:_ZN3Rme6Device4lockEv
libffado.so.2:_ZN3Rme6Device5probeERN4Util13ConfigurationER9ConfigRomb
libffado.so.2:_ZN3Rme6Device6unlockEv
libffado.so.2:_ZN3Rme6Device7addPortEPN9Streaming15StreamProcessorEPcNS1_4Port11E_DirectionEii
libffado.so.2:_ZN3Rme6Device7prepareEv
libffado.so.2:_ZN3Rme6Device8discoverEv
libffado.so.2:_ZN3Rme6Device8read_tcoEPji
libffado.so.2:_ZN3Rme6Device9getTcoLtcEv
libffado.so.2:_ZN3Rme6Device9readBlockEmPjj
libffado.so.2:_ZN3Rme6Device9write_tcoEPji
libffado.so.2:_ZN3Rme6DeviceC1ER13DeviceManagerSt10shared_ptrI9ConfigRomE
libffado.so.2:_ZN3Rme6DeviceC2ER13DeviceManagerSt10shared_ptrI9ConfigRomE
libffado.so.2:_ZN3Rme6DeviceD0Ev
libffado.so.2:_ZN3Rme6DeviceD1Ev
libffado.so.2:_ZN3Rme6DeviceD2Ev
libffado.so.2:_ZN4Dice3EAP10getSMuteIdEv
libffado.so.2:_ZN4Dice3EAP11supportsEAPERNS_6DeviceE
libffado.so.2:_ZN4Dice3EAP12RouterConfig10setupRouteEhh
libffado.so.2:_ZN4Dice3EAP12RouterConfig11clearRoutesEv
libffado.so.2:_ZN4Dice3EAP12RouterConfig11createRouteEhh
libffado.so.2:_ZN4Dice3EAP12RouterConfig11removeRouteEh
libffado.so.2:_ZN4Dice3EAP12RouterConfig11removeRouteEhh
libffado.so.2:_ZN4Dice3EAP12RouterConfig23getSourceForDestinationEh
libffado.so.2:_ZN4Dice3EAP12RouterConfig24getDestinationsForSourceEh
libffado.so.2:_ZN4Dice3EAP12RouterConfig4readENS0_8eRegBaseEj
libffado.so.2:_ZN4Dice3EAP12RouterConfig4showEv
libffado.so.2:_ZN4Dice3EAP12RouterConfig5writeENS0_8eRegBaseEj
libffado.so.2:_ZN4Dice3EAP12RouterConfig9muteRouteEh
libffado.so.2:_ZN4Dice3EAP12RouterConfigC1ERS0_
libffado.so.2:_ZN4Dice3EAP12RouterConfigC1ERS0_NS0_8eRegBaseEj
libffado.so.2:_ZN4Dice3EAP12RouterConfigC2ERS0_
libffado.so.2:_ZN4Dice3EAP12RouterConfigC2ERS0_NS0_8eRegBaseEj
libffado.so.2:_ZN4Dice3EAP12RouterConfigD1Ev
libffado.so.2:_ZN4Dice3EAP12RouterConfigD2Ev
libffado.so.2:_ZN4Dice3EAP12StreamConfig15showConfigBlockERNS1_11ConfigBlockE
libffado.so.2:_ZN4Dice3EAP12StreamConfig16getNamesForBlockERNS1_11ConfigBlockE
libffado.so.2:_ZN4Dice3EAP12StreamConfig16getRxNamesStringEj
libffado.so.2:_ZN4Dice3EAP12StreamConfig16getTxNamesStringEj
libffado.so.2:_ZN4Dice3EAP12StreamConfig4readENS0_8eRegBaseEj
libffado.so.2:_ZN4Dice3EAP12StreamConfig4showEv
libffado.so.2:_ZN4Dice3EAP12StreamConfig5writeENS0_8eRegBaseEj
libffado.so.2:_ZN4Dice3EAP12StreamConfigC1ERS0_NS0_8eRegBaseEj
libffado.so.2:_ZN4Dice3EAP12StreamConfigC2ERS0_NS0_8eRegBaseEj
libffado.so.2:_ZN4Dice3EAP12StreamConfigD1Ev
libffado.so.2:_ZN4Dice3EAP12StreamConfigD2Ev
libffado.so.2:_ZN4Dice3EAP12readRegBlockENS0_8eRegBaseEjPjm
libffado.so.2:_ZN4Dice3EAP12setupSourcesEv
libffado.so.2:_ZN4Dice3EAP13commandHelperEj
libffado.so.2:_ZN4Dice3EAP13operationBusyEv
libffado.so.2:_ZN4Dice3EAP13writeRegBlockENS0_8eRegBaseEjPjm
libffado.so.2:_ZN4Dice3EAP14addDestinationENSt7__cxx1112basic_stringIcSt11char_traitsIcESaIcEEEjjNS_17eRouteDestinationEj
libffado.so.2:_ZN4Dice3EAP14showFullRouterEv
libffado.so.2:_ZN4Dice3EAP15loadFlashConfigEv
libffado.so.2:_ZN4Dice3EAP15showApplicationEv
libffado.so.2:_ZN4Dice3EAP16StandaloneConfig4readENS0_8eRegBaseEj
libffado.so.2:_ZN4Dice3EAP16StandaloneConfig4showEv
libffado.so.2:_ZN4Dice3EAP16StandaloneConfig5writeENS0_8eRegBaseEj
libffado.so.2:_ZN4Dice3EAP16loadRouterConfigEbbb
libffado.so.2:_ZN4Dice3EAP16loadStreamConfigEbbb
libffado.so.2:_ZN4Dice3EAP16setupSources_lowEv
libffado.so.2:_ZN4Dice3EAP16setupSources_midEv
libffado.so.2:_ZN4Dice3EAP16storeFlashConfigEv
libffado.so.2:_ZN4Dice3EAP17getCptrNameStringEj
libffado.so.2:_ZN4Dice3EAP17getPbckNameStringEj
libffado.so.2:_ZN4Dice3EAP17setupDestinationsEv
libffado.so.2:_ZN4Dice3EAP17setupSources_highEv
libffado.so.2:_ZN4Dice3EAP17showFullPeakSpaceEv
libffado.so.2:_ZN4Dice3EAP18updateRouterConfigERNS0_12RouterConfigEbbb
libffado.so.2:_ZN4Dice3EAP18updateStreamConfigERNS0_12RouterConfigERNS0_12StreamConfigEbbb
libffado.so.2:_ZN4Dice3EAP18updateStreamConfigERNS0_12StreamConfigEbbb
libffado.so.2:_ZN4Dice3EAP19waitForOperationEndEi
libffado.so.2:_ZN4Dice3EAP21getActiveRouterConfigEv
libffado.so.2:_ZN4Dice3EAP21getActiveStreamConfigEv
libffado.so.2:_ZN4Dice3EAP21setupDestinations_lowEv
libffado.so.2:_ZN4Dice3EAP21setupDestinations_midEv
libffado.so.2:_ZN4Dice3EAP22setupDestinations_highEv
libffado.so.2:_ZN4Dice3EAP24setupDefaultRouterConfigEv
libffado.so.2:_ZN4Dice3EAP24updateConfigurationCacheEv
libffado.so.2:_ZN4Dice3EAP25loadRouterAndStreamConfigEbbb
libffado.so.2:_ZN4Dice3EAP25updateCurrentRouterConfigERNS0_12RouterConfigE
libffado.so.2:_ZN4Dice3EAP28setupDefaultRouterConfig_lowEv
libffado.so.2:_ZN4Dice3EAP28setupDefaultRouterConfig_midEv
libffado.so.2:_ZN4Dice3EAP29setupDefaultRouterConfig_highEv
libffado.so.2:_ZN4Dice3EAP4initEv
libffado.so.2:_ZN4Dice3EAP4showEv
libffado.so.2:_ZN4Dice3EAP5Mixer10getColNameB5cxx11Ei
libffado.so.2:_ZN4Dice3EAP5Mixer10getRowNameB5cxx11Ei
libffado.so.2:_ZN4Dice3EAP5Mixer11getColCountEv
libffado.so.2:_ZN4Dice3EAP5Mixer11getRowCountEv
libffado.so.2:_ZN4Dice3EAP5Mixer15updateNameCacheEv
libffado.so.2:_ZN4Dice3EAP5Mixer16loadCoefficientsEv
libffado.so.2:_ZN4Dice3EAP5Mixer17getCoefficientMapERi
libffado.so.2:_ZN4Dice3EAP5Mixer17storeCoefficientsEv
libffado.so.2:_ZN4Dice3EAP5Mixer19storeCoefficientMapERi
libffado.so.2:_ZN4Dice3EAP5Mixer4initEv
libffado.so.2:_ZN4Dice3EAP5Mixer4showEv
libffado.so.2:_ZN4Dice3EAP5Mixer8canWriteEii
libffado.so.2:_ZN4Dice3EAP5Mixer8getValueEii
libffado.so.2:_ZN4Dice3EAP5Mixer8setValueEiid
libffado.so.2:_ZN4Dice3EAP5MixerC1ERS0_
libffado.so.2:_ZN4Dice3EAP5MixerC2ERS0_
libffado.so.2:_ZN4Dice3EAP5MixerD0Ev
libffado.so.2:_ZN4Dice3EAP5MixerD1Ev
libffado.so.2:_ZN4Dice3EAP5MixerD2Ev
libffado.so.2:_ZN4Dice3EAP6Router10canConnectERKNSt7__cxx1112basic_stringIcSt11char_traitsIcESaIcEEES9_
libffado.so.2:_ZN4Dice3EAP6Router10canConnectEii
libffado.so.2:_ZN4Dice3EAP6Router12getPeakValueERKNSt7__cxx1112basic_stringIcSt11char_traitsIcESaIcEEE
libffado.so.2:_ZN4Dice3EAP6Router13getPeakValuesB5cxx11Ev
libffado.so.2:_ZN4Dice3EAP6Router13getSourceNameB5cxx11Ei
libffado.so.2:_ZN4Dice3EAP6Router14addDestinationERKNSt7__cxx1112basic_stringIcSt11char_traitsIcESaIcEEENS_17eRouteDestinationEjjj
libffado.so.2:_ZN4Dice3EAP6Router14getSourceIndexENSt7__cxx1112basic_stringIcSt11char_traitsIcESaIcEEE
libffado.so.2:_ZN4Dice3EAP6Router14getSourceNamesEv
libffado.so.2:_ZN4Dice3EAP6Router15hasPeakMeteringEv
libffado.so.2:_ZN4Dice3EAP6Router18getConnectionStateERKNSt7__cxx1112basic_stringIcSt11char_traitsIcESaIcEEES9_
libffado.so.2:_ZN4Dice3EAP6Router18getConnectionStateEii
libffado.so.2:_ZN4Dice3EAP6Router18getDestinationNameB5cxx11Ei
libffado.so.2:_ZN4Dice3EAP6Router18setConnectionStateERKNSt7__cxx1112basic_stringIcSt11char_traitsIcESaIcEEES9_b
libffado.so.2:_ZN4Dice3EAP6Router18setConnectionStateEiib
libffado.so.2:_ZN4Dice3EAP6Router19clearAllConnectionsEv
libffado.so.2:_ZN4Dice3EAP6Router19getDestinationIndexENSt7__cxx1112basic_stringIcSt11char_traitsIcESaIcEEE
libffado.so.2:_ZN4Dice3EAP6Router19getDestinationNamesEv
libffado.so.2:_ZN4Dice3EAP6Router23getSourceForDestinationERKNSt7__cxx1112basic_stringIcSt11char_traitsIcESaIcEEE
libffado.so.2:_ZN4Dice3EAP6Router24getDestinationsForSourceERKNSt7__cxx1112basic_stringIcSt11char_traitsIcESaIcEEE
libffado.so.2:_ZN4Dice3EAP6Router4showEv
libffado.so.2:_ZN4Dice3EAP6Router6updateEv
libffado.so.2:_ZN4Dice3EAP6Router9addSourceERKNSt7__cxx1112basic_stringIcSt11char_traitsIcESaIcEEENS_12eRouteSourceEjjj
libffado.so.2:_ZN4Dice3EAP6RouterC1ERS0_
libffado.so.2:_ZN4Dice3EAP6RouterC2ERS0_
libffado.so.2:_ZN4Dice3EAP6RouterD0Ev
libffado.so.2:_ZN4Dice3EAP6RouterD1Ev
libffado.so.2:_ZN4Dice3EAP6RouterD2Ev
libffado.so.2:_ZN4Dice3EAP6updateEv
libffado.so.2:_ZN4Dice3EAP7readRegENS0_8eRegBaseEjPj
libffado.so.2:_ZN4Dice3EAP8addRouteENS_12eRouteSourceEjNS_17eRouteDestinationEj
libffado.so.2:_ZN4Dice3EAP8writeRegENS0_8eRegBaseEjj
libffado.so.2:_ZN4Dice3EAP9PeakSpace4readENS0_8eRegBaseEj
libffado.so.2:_ZN4Dice3EAP9PeakSpace4showEv
libffado.so.2:_ZN4Dice3EAP9PeakSpace7getPeakEh
libffado.so.2:_ZN4Dice3EAP9PeakSpace8getPeaksEv
libffado.so.2:_ZN4Dice3EAP9addSourceENSt7__cxx1112basic_stringIcSt11char_traitsIcESaIcEEEjjNS_12eRouteSourceEj
libffado.so.2:_ZN4Dice3EAP9offsetGenENS0_8eRegBaseEjm
libffado.so.2:_ZN4Dice3EAPC1ERNS_6DeviceE
libffado.so.2:_ZN4Dice3EAPC2ERNS_6DeviceE
libffado.so.2:_ZN4Dice3EAPD0Ev
libffado.so.2:_ZN4Dice3EAPD1Ev
libffado.so.2:_ZN4Dice3EAPD2Ev
libffado.so.2:_ZN4Dice6Device10showDeviceEv
libffado.so.2:_ZN4Dice6Device10testDiceFLEi
libffado.so.2:_ZN4Dice6Device10writeRxRegEjmj
libffado.so.2:_ZN4Dice6Device10writeTxRegEjmj
libffado.so.2:_ZN4Dice6Device11deleteImgFLEPKcb
libffado.so.2:_ZN4Dice6Device11flashDiceFLEPKcS2_
libffado.so.2:_ZN4Dice6Device11getNicknameB5cxx11Ev
libffado.so.2:_ZN4Dice6Device11rxOffsetGenEjmm
libffado.so.2:_ZN4Dice6Device11setNicknameENSt7__cxx1112basic_stringIcSt11char_traitsIcESaIcEEE
libffado.so.2:_ZN4Dice6Device11txOffsetGenEjmm
libffado.so.2:_ZN4Dice6Device12createDeviceER13DeviceManagerSt10shared_ptrI9ConfigRomE
libffado.so.2:_ZN4Dice6Device12readRegBlockEmPjm
libffado.so.2:_ZN4Dice6Device12setRXTXfuncsEN9Streaming4Port11E_DirectionE
libffado.so.2:_ZN4Dice6Device13clockIdToTypeEj
libffado.so.2:_ZN4Dice6Device13readGlobalRegEmPj
libffado.so.2:_ZN4Dice6Device13showAppInfoFLEv
libffado.so.2:_ZN4Dice6Device13showImgInfoFLEv
libffado.so.2:_ZN4Dice6Device13writeRegBlockEmPjm
libffado.so.2:_ZN4Dice6Device14dumpFirmwareFLEPKc
libffado.so.2:_ZN4Dice6Device14getStreamCountEv
libffado.so.2:_ZN4Dice6Device14readRxRegBlockEjmPjm
libffado.so.2:_ZN4Dice6Device14readTxRegBlockEjmPjm
libffado.so.2:_ZN4Dice6Device14showDiceInfoFLEv
libffado.so.2:_ZN4Dice6Device14writeGlobalRegEmj
libffado.so.2:_ZN4Dice6Device15enableStreamingEv
libffado.so.2:_ZN4Dice6Device15getRxNameStringEj
libffado.so.2:_ZN4Dice6Device15getTxNameStringEj
libffado.so.2:_ZN4Dice6Device15globalOffsetGenEmm
libffado.so.2:_ZN4Dice6Device15initIoFunctionsEv
libffado.so.2:_ZN4Dice6Device15showFlashInfoFLEb
libffado.so.2:_ZN4Dice6Device15splitNameStringENSt7__cxx1112basic_stringIcSt11char_traitsIcESaIcEEE
libffado.so.2:_ZN4Dice6Device15writeRxRegBlockEjmPjm
libffado.so.2:_ZN4Dice6Device15writeTxRegBlockEjmPjm
libffado.so.2:_ZN4Dice6Device16disableStreamingEv
libffado.so.2:_ZN4Dice6Device16getCurrentConfigEv
libffado.so.2:_ZN4Dice6Device17getCptrNameStringEj
libffado.so.2:_ZN4Dice6Device17getPbckNameStringEj
libffado.so.2:_ZN4Dice6Device17getStreamingStateEv
libffado.so.2:_ZN4Dice6Device17stopStreamByIndexEi
libffado.so.2:_ZN4Dice6Device18allocateIsoChannelEj
libffado.so.2:_ZN4Dice6Device18enableIsoStreamingEv
libffado.so.2:_ZN4Dice6Device18getConfigurationIdEv
libffado.so.2:_ZN4Dice6Device18onSamplerateChangeEi
libffado.so.2:_ZN4Dice6Device18readGlobalRegBlockEmPjm
libffado.so.2:_ZN4Dice6Device18startStreamByIndexEi
libffado.so.2:_ZN4Dice6Device19disableIsoStreamingEv
libffado.so.2:_ZN4Dice6Device19writeGlobalRegBlockEmPjm
libffado.so.2:_ZN4Dice6Device20deallocateIsoChannelEi
libffado.so.2:_ZN4Dice6Device20getActiveClockSourceEv
libffado.so.2:_ZN4Dice6Device20getSamplingFrequencyEv
libffado.so.2:_ZN4Dice6Device20setActiveClockSourceEN11FFADODevice11ClockSourceE
libffado.so.2:_ZN4Dice6Device20setSamplingFrequencyEi
libffado.so.2:_ZN4Dice6Device21addChannelToProcessorEPNS0_15diceChannelInfoEPN9Streaming15StreamProcessorENS3_4Port11E_DirectionE
libffado.so.2:_ZN4Dice6Device21isClockSourceIdLockedEjj
libffado.so.2:_ZN4Dice6Device21isIsoStreamingEnabledEv
libffado.so.2:_ZN4Dice6Device22startstopStreamByIndexEib
libffado.so.2:_ZN4Dice6Device23isClockSourceIdSlippingEjj
libffado.so.2:_ZN4Dice6Device24getClockSourceNameStringEv
libffado.so.2:_ZN4Dice6Device24getSupportedClockSourcesEv
libffado.so.2:_ZN4Dice6Device24maskedCheckZeroGlobalRegEmj
libffado.so.2:_ZN4Dice6Device25getStreamProcessorByIndexEi
libffado.so.2:_ZN4Dice6Device27maskedCheckNotZeroGlobalRegEmj
libffado.so.2:_ZN4Dice6Device31getSupportedSamplingFrequenciesEv
libffado.so.2:_ZN4Dice6Device4lockEv
libffado.so.2:_ZN4Dice6Device5probeERN4Util13ConfigurationER9ConfigRomb
libffado.so.2:_ZN4Dice6Device6unlockEv
libffado.so.2:_ZN4Dice6Device7prepareEv
libffado.so.2:_ZN4Dice6Device7readRegEmPj
libffado.so.2:_ZN4Dice6Device8NotifierC1ERS0_m
libffado.so.2:_ZN4Dice6Device8NotifierC2ERS0_m
libffado.so.2:_ZN4Dice6Device8NotifierD0Ev
libffado.so.2:_ZN4Dice6Device8NotifierD1Ev
libffado.so.2:_ZN4Dice6Device8NotifierD2Ev
libffado.so.2:_ZN4Dice6Device8discoverEv
libffado.so.2:_ZN4Dice6Device8writeRegEmj
libffado.so.2:_ZN4Dice6Device9createEAPEv
libffado.so.2:_ZN4Dice6Device9prepareSPEjN9Streaming4Port11E_DirectionE
libffado.so.2:_ZN4Dice6Device9readRxRegEjmPj
libffado.so.2:_ZN4Dice6Device9readTxRegEjmPj
libffado.so.2:_ZN4Dice6DeviceC1ER13DeviceManagerSt10shared_ptrI9ConfigRomE
libffado.so.2:_ZN4Dice6DeviceC2ER13DeviceManagerSt10shared_ptrI9ConfigRomE
libffado.so.2:_ZN4Dice6DeviceD0Ev
libffado.so.2:_ZN4Dice6DeviceD1Ev
libffado.so.2:_ZN4Dice6DeviceD2Ev
libffado.so.2:_ZN4Dice6Maudio11Profire262610showDeviceEv
libffado.so.2:_ZN4Dice6Maudio11Profire262613Profire610EAP16setupSources_lowEv
libffado.so.2:_ZN4Dice6Maudio11Profire262613Profire610EAP16setupSources_midEv
libffado.so.2:_ZN4Dice6Maudio11Profire262613Profire610EAP17setupSources_highEv
libffado.so.2:_ZN4Dice6Maudio11Profire262613Profire610EAP21setupDestinations_lowEv
libffado.so.2:_ZN4Dice6Maudio11Profire262613Profire610EAP21setupDestinations_midEv
libffado.so.2:_ZN4Dice6Maudio11Profire262613Profire610EAP22setupDestinations_highEv
libffado.so.2:_ZN4Dice6Maudio11Profire262613Profire610EAP28setupDefaultRouterConfig_lowEv
libffado.so.2:_ZN4Dice6Maudio11Profire262613Profire610EAP28setupDefaultRouterConfig_midEv
libffado.so.2:_ZN4Dice6Maudio11Profire262613Profire610EAP29setupDefaultRouterConfig_highEv
libffado.so.2:_ZN4Dice6Maudio11Profire262613Profire610EAPC1ERNS_6DeviceE
libffado.so.2:_ZN4Dice6Maudio11Profire262613Profire610EAPC2ERNS_6DeviceE
libffado.so.2:_ZN4Dice6Maudio11Profire262614Profire2626EAP15SettingsSectionC1EPS2_NSt7__cxx1112basic_stringIcSt11char_traitsIcESaIcEEE
libffado.so.2:_ZN4Dice6Maudio11Profire262614Profire2626EAP15SettingsSectionC2EPS2_NSt7__cxx1112basic_stringIcSt11char_traitsIcESaIcEEE
libffado.so.2:_ZN4Dice6Maudio11Profire262614Profire2626EAP16setupSources_lowEv
libffado.so.2:_ZN4Dice6Maudio11Profire262614Profire2626EAP16setupSources_midEv
libffado.so.2:_ZN4Dice6Maudio11Profire262614Profire2626EAP17setupSources_highEv
libffado.so.2:_ZN4Dice6Maudio11Profire262614Profire2626EAP18readApplicationRegEjPj
libffado.so.2:_ZN4Dice6Maudio11Profire262614Profire2626EAP19writeApplicationRegEjj
libffado.so.2:_ZN4Dice6Maudio11Profire262614Profire2626EAP21setupDestinations_lowEv
libffado.so.2:_ZN4Dice6Maudio11Profire262614Profire2626EAP21setupDestinations_midEv
libffado.so.2:_ZN4Dice6Maudio11Profire262614Profire2626EAP22setupDestinations_highEv
libffado.so.2:_ZN4Dice6Maudio11Profire262614Profire2626EAP28setupDefaultRouterConfig_lowEv
libffado.so.2:_ZN4Dice6Maudio11Profire262614Profire2626EAP28setupDefaultRouterConfig_midEv
libffado.so.2:_ZN4Dice6Maudio11Profire262614Profire2626EAP29setupDefaultRouterConfig_highEv
libffado.so.2:_ZN4Dice6Maudio11Profire262614Profire2626EAP6Switch6selectEb
libffado.so.2:_ZN4Dice6Maudio11Profire262614Profire2626EAP6Switch8selectedEv
libffado.so.2:_ZN4Dice6Maudio11Profire262614Profire2626EAP6SwitchC1EPS2_NSt7__cxx1112basic_stringIcSt11char_traitsIcESaIcEEEmi
libffado.so.2:_ZN4Dice6Maudio11Profire262614Profire2626EAP6SwitchC2EPS2_NSt7__cxx1112basic_stringIcSt11char_traitsIcESaIcEEEmi
libffado.so.2:_ZN4Dice6Maudio11Profire262614Profire2626EAPC1ERNS_6DeviceE
libffado.so.2:_ZN4Dice6Maudio11Profire262614Profire2626EAPC2ERNS_6DeviceE
libffado.so.2:_ZN4Dice6Maudio11Profire26268discoverEv
libffado.so.2:_ZN4Dice6Maudio11Profire26269createEAPEv
libffado.so.2:_ZN4Dice6Maudio11Profire2626C1ER13DeviceManagerSt10shared_ptrI9ConfigRomE
libffado.so.2:_ZN4Dice6Maudio11Profire2626C2ER13DeviceManagerSt10shared_ptrI9ConfigRomE
libffado.so.2:_ZN4Dice6Maudio11Profire2626D0Ev
libffado.so.2:_ZN4Dice6Maudio11Profire2626D1Ev
libffado.so.2:_ZN4Dice6Maudio11Profire2626D2Ev
libffado.so.2:_ZN4Dice8Presonus14FirestudioTube10showDeviceEv
libffado.so.2:_ZN4Dice8Presonus14FirestudioTube17FirestudioTubeEAP16setupSources_lowEv
libffado.so.2:_ZN4Dice8Presonus14FirestudioTube17FirestudioTubeEAP16setupSources_midEv
libffado.so.2:_ZN4Dice8Presonus14FirestudioTube17FirestudioTubeEAP17setupSources_highEv
libffado.so.2:_ZN4Dice8Presonus14FirestudioTube17FirestudioTubeEAP21setupDestinations_lowEv
libffado.so.2:_ZN4Dice8Presonus14FirestudioTube17FirestudioTubeEAP21setupDestinations_midEv
libffado.so.2:_ZN4Dice8Presonus14FirestudioTube17FirestudioTubeEAP22setupDestinations_highEv
libffado.so.2:_ZN4Dice8Presonus14FirestudioTube17FirestudioTubeEAP28setupDefaultRouterConfig_lowEv
libffado.so.2:_ZN4Dice8Presonus14FirestudioTube17FirestudioTubeEAP28setupDefaultRouterConfig_midEv
libffado.so.2:_ZN4Dice8Presonus14FirestudioTube17FirestudioTubeEAP29setupDefaultRouterConfig_highEv
libffado.so.2:_ZN4Dice8Presonus14FirestudioTube8discoverEv
libffado.so.2:_ZN4Dice8Presonus14FirestudioTube9createEAPEv
libffado.so.2:_ZN4Dice8Presonus14FirestudioTubeC1ER13DeviceManagerSt10shared_ptrI9ConfigRomE
libffado.so.2:_ZN4Dice8Presonus14FirestudioTubeC2ER13DeviceManagerSt10shared_ptrI9ConfigRomE
libffado.so.2:_ZN4Dice8Presonus14FirestudioTubeD0Ev
libffado.so.2:_ZN4Dice8Presonus14FirestudioTubeD1Ev
libffado.so.2:_ZN4Dice8Presonus14FirestudioTubeD2Ev
libffado.so.2:_ZN4Dice8Presonus16FirestudioMobile10showDeviceEv
libffado.so.2:_ZN4Dice8Presonus16FirestudioMobile19FirestudioMobileEAP16setupSources_lowEv
libffado.so.2:_ZN4Dice8Presonus16FirestudioMobile19FirestudioMobileEAP16setupSources_midEv
libffado.so.2:_ZN4Dice8Presonus16FirestudioMobile19FirestudioMobileEAP17setupSources_highEv
libffado.so.2:_ZN4Dice8Presonus16FirestudioMobile19FirestudioMobileEAP21setupDestinations_lowEv
libffado.so.2:_ZN4Dice8Presonus16FirestudioMobile19FirestudioMobileEAP21setupDestinations_midEv
libffado.so.2:_ZN4Dice8Presonus16FirestudioMobile19FirestudioMobileEAP22setupDestinations_highEv
libffado.so.2:_ZN4Dice8Presonus16FirestudioMobile19FirestudioMobileEAP28setupDefaultRouterConfig_lowEv
libffado.so.2:_ZN4Dice8Presonus16FirestudioMobile19FirestudioMobileEAP28setupDefaultRouterConfig_midEv
libffado.so.2:_ZN4Dice8Presonus16FirestudioMobile19FirestudioMobileEAP29setupDefaultRouterConfig_highEv
libffado.so.2:_ZN4Dice8Presonus16FirestudioMobile8discoverEv
libffado.so.2:_ZN4Dice8Presonus16FirestudioMobile9createEAPEv
libffado.so.2:_ZN4Dice8Presonus16FirestudioMobileC1ER13DeviceManagerSt10shared_ptrI9ConfigRomE
libffado.so.2:_ZN4Dice8Presonus16FirestudioMobileC2ER13DeviceManagerSt10shared_ptrI9ConfigRomE
libffado.so.2:_ZN4Dice8Presonus16FirestudioMobileD0Ev
libffado.so.2:_ZN4Dice8Presonus16FirestudioMobileD1Ev
libffado.so.2:_ZN4Dice8Presonus16FirestudioMobileD2Ev
libffado.so.2:_ZN4Dice8Presonus17FirestudioProject10showDeviceEv
libffado.so.2:_ZN4Dice8Presonus17FirestudioProject20FirestudioProjectEAP16setupSources_lowEv
libffado.so.2:_ZN4Dice8Presonus17FirestudioProject20FirestudioProjectEAP16setupSources_midEv
libffado.so.2:_ZN4Dice8Presonus17FirestudioProject20FirestudioProjectEAP17setupSources_highEv
libffado.so.2:_ZN4Dice8Presonus17FirestudioProject20FirestudioProjectEAP21setupDestinations_lowEv
libffado.so.2:_ZN4Dice8Presonus17FirestudioProject20FirestudioProjectEAP21setupDestinations_midEv
libffado.so.2:_ZN4Dice8Presonus17FirestudioProject20FirestudioProjectEAP22setupDestinations_highEv
libffado.so.2:_ZN4Dice8Presonus17FirestudioProject20FirestudioProjectEAP28setupDefaultRouterConfig_lowEv
libffado.so.2:_ZN4Dice8Presonus17FirestudioProject20FirestudioProjectEAP28setupDefaultRouterConfig_midEv
libffado.so.2:_ZN4Dice8Presonus17FirestudioProject20FirestudioProjectEAP29setupDefaultRouterConfig_highEv
libffado.so.2:_ZN4Dice8Presonus17FirestudioProject8discoverEv
libffado.so.2:_ZN4Dice8Presonus17FirestudioProject9createEAPEv
libffado.so.2:_ZN4Dice8Presonus17FirestudioProjectC1ER13DeviceManagerSt10shared_ptrI9ConfigRomE
libffado.so.2:_ZN4Dice8Presonus17FirestudioProjectC2ER13DeviceManagerSt10shared_ptrI9ConfigRomE
libffado.so.2:_ZN4Dice8Presonus17FirestudioProjectD0Ev
libffado.so.2:_ZN4Dice8Presonus17FirestudioProjectD1Ev
libffado.so.2:_ZN4Dice8Presonus17FirestudioProjectD2Ev
libffado.so.2:_ZN4Dice9Focusrite12FocusriteEAP10messageSetEjj
libffado.so.2:_ZN4Dice9Focusrite12FocusriteEAP13VolumeControl8getValueEv
libffado.so.2:_ZN4Dice9Focusrite12FocusriteEAP13VolumeControl8setValueEi
libffado.so.2:_ZN4Dice9Focusrite12FocusriteEAP13VolumeControlC1EPS1_NSt7__cxx1112basic_stringIcSt11char_traitsIcESaIcEEEmimi
libffado.so.2:_ZN4Dice9Focusrite12FocusriteEAP13VolumeControlC2EPS1_NSt7__cxx1112basic_stringIcSt11char_traitsIcESaIcEEEmimi
libffado.so.2:_ZN4Dice9Focusrite12FocusriteEAP18readApplicationRegEjPj
libffado.so.2:_ZN4Dice9Focusrite12FocusriteEAP19writeApplicationRegEjj
libffado.so.2:_ZN4Dice9Focusrite12FocusriteEAP4Poti8getValueEv
libffado.so.2:_ZN4Dice9Focusrite12FocusriteEAP4Poti8setValueEi
libffado.so.2:_ZN4Dice9Focusrite12FocusriteEAP4PotiC1EPS1_NSt7__cxx1112basic_stringIcSt11char_traitsIcESaIcEEEmmi
libffado.so.2:_ZN4Dice9Focusrite12FocusriteEAP4PotiC2EPS1_NSt7__cxx1112basic_stringIcSt11char_traitsIcESaIcEEEmmi
libffado.so.2:_ZN4Dice9Focusrite12FocusriteEAP6Switch6selectEb
libffado.so.2:_ZN4Dice9Focusrite12FocusriteEAP6Switch8selectedEv
libffado.so.2:_ZN4Dice9Focusrite12FocusriteEAP6SwitchC1EPS1_NSt7__cxx1112basic_stringIcSt11char_traitsIcESaIcEEEmimi
libffado.so.2:_ZN4Dice9Focusrite12FocusriteEAP6SwitchC2EPS1_NSt7__cxx1112basic_stringIcSt11char_traitsIcESaIcEEEmimi
libffado.so.2:_ZN4Dice9Focusrite12FocusriteEAPC1ERNS_6DeviceE
libffado.so.2:_ZN4Dice9Focusrite12FocusriteEAPC2ERNS_6DeviceE
libffado.so.2:_ZN4Dice9Focusrite12SaffirePro1410showDeviceEv
libffado.so.2:_ZN4Dice9Focusrite12SaffirePro1411getNicknameB5cxx11Ev
libffado.so.2:_ZN4Dice9Focusrite12SaffirePro1411setNicknameENSt7__cxx1112basic_stringIcSt11char_traitsIcESaIcEEE
libffado.so.2:_ZN4Dice9Focusrite12SaffirePro1415SaffirePro14EAP14MonitorSectionC1EPNS0_12FocusriteEAPENSt7__cxx1112basic_stringIcSt11char_traitsIcESaIcEEE
libffado.so.2:_ZN4Dice9Focusrite12SaffirePro1415SaffirePro14EAP14MonitorSectionC2EPNS0_12FocusriteEAPENSt7__cxx1112basic_stringIcSt11char_traitsIcESaIcEEE
libffado.so.2:_ZN4Dice9Focusrite12SaffirePro1415SaffirePro14EAP16setupSources_lowEv
libffado.so.2:_ZN4Dice9Focusrite12SaffirePro1415SaffirePro14EAP16setupSources_midEv
libffado.so.2:_ZN4Dice9Focusrite12SaffirePro1415SaffirePro14EAP17setupSources_highEv
libffado.so.2:_ZN4Dice9Focusrite12SaffirePro1415SaffirePro14EAP21setupDestinations_lowEv
libffado.so.2:_ZN4Dice9Focusrite12SaffirePro1415SaffirePro14EAP21setupDestinations_midEv
libffado.so.2:_ZN4Dice9Focusrite12SaffirePro1415SaffirePro14EAP22setupDestinations_highEv
libffado.so.2:_ZN4Dice9Focusrite12SaffirePro1415SaffirePro14EAP28setupDefaultRouterConfig_lowEv
libffado.so.2:_ZN4Dice9Focusrite12SaffirePro1415SaffirePro14EAP28setupDefaultRouterConfig_midEv
libffado.so.2:_ZN4Dice9Focusrite12SaffirePro1415SaffirePro14EAP29setupDefaultRouterConfig_highEv
libffado.so.2:_ZN4Dice9Focusrite12SaffirePro148discoverEv
libffado.so.2:_ZN4Dice9Focusrite12SaffirePro149createEAPEv
libffado.so.2:_ZN4Dice9Focusrite12SaffirePro14C1ER13DeviceManagerSt10shared_ptrI9ConfigRomE
libffado.so.2:_ZN4Dice9Focusrite12SaffirePro14C2ER13DeviceManagerSt10shared_ptrI9ConfigRomE
libffado.so.2:_ZN4Dice9Focusrite12SaffirePro14D0Ev
libffado.so.2:_ZN4Dice9Focusrite12SaffirePro14D1Ev
libffado.so.2:_ZN4Dice9Focusrite12SaffirePro14D2Ev
libffado.so.2:_ZN4Dice9Focusrite12SaffirePro2410showDeviceEv
libffado.so.2:_ZN4Dice9Focusrite12SaffirePro2411getNicknameB5cxx11Ev
libffado.so.2:_ZN4Dice9Focusrite12SaffirePro2411setNicknameENSt7__cxx1112basic_stringIcSt11char_traitsIcESaIcEEE
libffado.so.2:_ZN4Dice9Focusrite12SaffirePro2415SaffirePro24EAP14MonitorSectionC1EPNS0_12FocusriteEAPENSt7__cxx1112basic_stringIcSt11char_traitsIcESaIcEEE
libffado.so.2:_ZN4Dice9Focusrite12SaffirePro2415SaffirePro24EAP14MonitorSectionC2EPNS0_12FocusriteEAPENSt7__cxx1112basic_stringIcSt11char_traitsIcESaIcEEE
libffado.so.2:_ZN4Dice9Focusrite12SaffirePro2415SaffirePro24EAP16setupSources_lowEv
libffado.so.2:_ZN4Dice9Focusrite12SaffirePro2415SaffirePro24EAP16setupSources_midEv
libffado.so.2:_ZN4Dice9Focusrite12SaffirePro2415SaffirePro24EAP17setupSources_highEv
libffado.so.2:_ZN4Dice9Focusrite12SaffirePro2415SaffirePro24EAP21setupDestinations_lowEv
libffado.so.2:_ZN4Dice9Focusrite12SaffirePro2415SaffirePro24EAP21setupDestinations_midEv
libffado.so.2:_ZN4Dice9Focusrite12SaffirePro2415SaffirePro24EAP22setupDestinations_highEv
libffado.so.2:_ZN4Dice9Focusrite12SaffirePro2415SaffirePro24EAP28setupDefaultRouterConfig_lowEv
libffado.so.2:_ZN4Dice9Focusrite12SaffirePro2415SaffirePro24EAP28setupDefaultRouterConfig_midEv
libffado.so.2:_ZN4Dice9Focusrite12SaffirePro2415SaffirePro24EAP29setupDefaultRouterConfig_highEv
libffado.so.2:_ZN4Dice9Focusrite12SaffirePro248discoverEv
libffado.so.2:_ZN4Dice9Focusrite12SaffirePro249createEAPEv
libffado.so.2:_ZN4Dice9Focusrite12SaffirePro24C1ER13DeviceManagerSt10shared_ptrI9ConfigRomE
libffado.so.2:_ZN4Dice9Focusrite12SaffirePro24C2ER13DeviceManagerSt10shared_ptrI9ConfigRomE
libffado.so.2:_ZN4Dice9Focusrite12SaffirePro24D0Ev
libffado.so.2:_ZN4Dice9Focusrite12SaffirePro24D1Ev
libffado.so.2:_ZN4Dice9Focusrite12SaffirePro24D2Ev
libffado.so.2:_ZN4Dice9Focusrite12SaffirePro2610showDeviceEv
libffado.so.2:_ZN4Dice9Focusrite12SaffirePro2611getNicknameB5cxx11Ev
libffado.so.2:_ZN4Dice9Focusrite12SaffirePro2611setNicknameENSt7__cxx1112basic_stringIcSt11char_traitsIcESaIcEEE
libffado.so.2:_ZN4Dice9Focusrite12SaffirePro2615SaffirePro26EAP14MonitorSectionC1EPNS0_12FocusriteEAPENSt7__cxx1112basic_stringIcSt11char_traitsIcESaIcEEE
libffado.so.2:_ZN4Dice9Focusrite12SaffirePro2615SaffirePro26EAP14MonitorSectionC2EPNS0_12FocusriteEAPENSt7__cxx1112basic_stringIcSt11char_traitsIcESaIcEEE
libffado.so.2:_ZN4Dice9Focusrite12SaffirePro2615SaffirePro26EAP16setupSources_lowEv
libffado.so.2:_ZN4Dice9Focusrite12SaffirePro2615SaffirePro26EAP16setupSources_midEv
libffado.so.2:_ZN4Dice9Focusrite12SaffirePro2615SaffirePro26EAP17setupSources_highEv
libffado.so.2:_ZN4Dice9Focusrite12SaffirePro2615SaffirePro26EAP21setupDestinations_lowEv
libffado.so.2:_ZN4Dice9Focusrite12SaffirePro2615SaffirePro26EAP21setupDestinations_midEv
libffado.so.2:_ZN4Dice9Focusrite12SaffirePro2615SaffirePro26EAP22setupDestinations_highEv
libffado.so.2:_ZN4Dice9Focusrite12SaffirePro2615SaffirePro26EAP28setupDefaultRouterConfig_lowEv
libffado.so.2:_ZN4Dice9Focusrite12SaffirePro2615SaffirePro26EAP28setupDefaultRouterConfig_midEv
libffado.so.2:_ZN4Dice9Focusrite12SaffirePro2615SaffirePro26EAP29setupDefaultRouterConfig_highEv
libffado.so.2:_ZN4Dice9Focusrite12SaffirePro268discoverEv
libffado.so.2:_ZN4Dice9Focusrite12SaffirePro269createEAPEv
libffado.so.2:_ZN4Dice9Focusrite12SaffirePro26C1ER13DeviceManagerSt10shared_ptrI9ConfigRomE
libffado.so.2:_ZN4Dice9Focusrite12SaffirePro26C2ER13DeviceManagerSt10shared_ptrI9ConfigRomE
libffado.so.2:_ZN4Dice9Focusrite12SaffirePro26D0Ev
libffado.so.2:_ZN4Dice9Focusrite12SaffirePro26D1Ev
libffado.so.2:_ZN4Dice9Focusrite12SaffirePro26D2Ev
libffado.so.2:_ZN4Dice9Focusrite12SaffirePro4010showDeviceEv
libffado.so.2:_ZN4Dice9Focusrite12SaffirePro4011getNicknameB5cxx11Ev
libffado.so.2:_ZN4Dice9Focusrite12SaffirePro4011setNicknameENSt7__cxx1112basic_stringIcSt11char_traitsIcESaIcEEE
libffado.so.2:_ZN4Dice9Focusrite12SaffirePro4015SaffirePro40EAP14MonitorSectionC1EPNS0_12FocusriteEAPENSt7__cxx1112basic_stringIcSt11char_traitsIcESaIcEEE
libffado.so.2:_ZN4Dice9Focusrite12SaffirePro4015SaffirePro40EAP14MonitorSectionC2EPNS0_12FocusriteEAPENSt7__cxx1112basic_stringIcSt11char_traitsIcESaIcEEE
libffado.so.2:_ZN4Dice9Focusrite12SaffirePro4015SaffirePro40EAP16setupSources_lowEv
libffado.so.2:_ZN4Dice9Focusrite12SaffirePro4015SaffirePro40EAP16setupSources_midEv
libffado.so.2:_ZN4Dice9Focusrite12SaffirePro4015SaffirePro40EAP17setupSources_highEv
libffado.so.2:_ZN4Dice9Focusrite12SaffirePro4015SaffirePro40EAP18getADATSPDIF_stateEv
libffado.so.2:_ZN4Dice9Focusrite12SaffirePro4015SaffirePro40EAP21setupDestinations_lowEv
libffado.so.2:_ZN4Dice9Focusrite12SaffirePro4015SaffirePro40EAP21setupDestinations_midEv
libffado.so.2:_ZN4Dice9Focusrite12SaffirePro4015SaffirePro40EAP22setupDestinations_highEv
libffado.so.2:_ZN4Dice9Focusrite12SaffirePro4015SaffirePro40EAP28setupDefaultRouterConfig_lowEv
libffado.so.2:_ZN4Dice9Focusrite12SaffirePro4015SaffirePro40EAP28setupDefaultRouterConfig_midEv
libffado.so.2:_ZN4Dice9Focusrite12SaffirePro4015SaffirePro40EAP29setupDefaultRouterConfig_highEv
libffado.so.2:_ZN4Dice9Focusrite12SaffirePro4015SaffirePro40EAP6Switch6selectEb
libffado.so.2:_ZN4Dice9Focusrite12SaffirePro4015SaffirePro40EAP6SwitchC1EPNS0_12FocusriteEAPENSt7__cxx1112basic_stringIcSt11char_traitsIcESaIcEEEmimi
libffado.so.2:_ZN4Dice9Focusrite12SaffirePro4015SaffirePro40EAP6SwitchC2EPNS0_12FocusriteEAPENSt7__cxx1112basic_stringIcSt11char_traitsIcESaIcEEEmimi
libffado.so.2:_ZN4Dice9Focusrite12SaffirePro408discoverEv
libffado.so.2:_ZN4Dice9Focusrite12SaffirePro409createEAPEv
libffado.so.2:_ZN4Dice9Focusrite12SaffirePro40C1ER13DeviceManagerSt10shared_ptrI9ConfigRomE
libffado.so.2:_ZN4Dice9Focusrite12SaffirePro40C2ER13DeviceManagerSt10shared_ptrI9ConfigRomE
libffado.so.2:_ZN4Dice9Focusrite12SaffirePro40D0Ev
libffado.so.2:_ZN4Dice9Focusrite12SaffirePro40D1Ev
libffado.so.2:_ZN4Dice9Focusrite12SaffirePro40D2Ev
libffado.so.2:_ZN4Dice9Focusrite9Saffire5610showDeviceEv
libffado.so.2:_ZN4Dice9Focusrite9Saffire5611getNicknameB5cxx11Ev
libffado.so.2:_ZN4Dice9Focusrite9Saffire5611setNicknameENSt7__cxx1112basic_stringIcSt11char_traitsIcESaIcEEE
libffado.so.2:_ZN4Dice9Focusrite9Saffire5612Saffire56EAP14MonitorSectionC1EPNS0_12FocusriteEAPENSt7__cxx1112basic_stringIcSt11char_traitsIcESaIcEEE
libffado.so.2:_ZN4Dice9Focusrite9Saffire5612Saffire56EAP14MonitorSectionC2EPNS0_12FocusriteEAPENSt7__cxx1112basic_stringIcSt11char_traitsIcESaIcEEE
libffado.so.2:_ZN4Dice9Focusrite9Saffire5612Saffire56EAP16setupSources_lowEv
libffado.so.2:_ZN4Dice9Focusrite9Saffire5612Saffire56EAP16setupSources_midEv
libffado.so.2:_ZN4Dice9Focusrite9Saffire5612Saffire56EAP17setupSources_highEv
libffado.so.2:_ZN4Dice9Focusrite9Saffire5612Saffire56EAP18getADATSPDIF_stateEv
libffado.so.2:_ZN4Dice9Focusrite9Saffire5612Saffire56EAP21setupDestinations_lowEv
libffado.so.2:_ZN4Dice9Focusrite9Saffire5612Saffire56EAP21setupDestinations_midEv
libffado.so.2:_ZN4Dice9Focusrite9Saffire5612Saffire56EAP22setupDestinations_highEv
libffado.so.2:_ZN4Dice9Focusrite9Saffire5612Saffire56EAP28setupDefaultRouterConfig_lowEv
libffado.so.2:_ZN4Dice9Focusrite9Saffire5612Saffire56EAP28setupDefaultRouterConfig_midEv
libffado.so.2:_ZN4Dice9Focusrite9Saffire5612Saffire56EAP29setupDefaultRouterConfig_highEv
libffado.so.2:_ZN4Dice9Focusrite9Saffire5612Saffire56EAP6Switch6selectEb
libffado.so.2:_ZN4Dice9Focusrite9Saffire5612Saffire56EAP6SwitchC1EPNS0_12FocusriteEAPENSt7__cxx1112basic_stringIcSt11char_traitsIcESaIcEEEmimi
libffado.so.2:_ZN4Dice9Focusrite9Saffire5612Saffire56EAP6SwitchC2EPNS0_12FocusriteEAPENSt7__cxx1112basic_stringIcSt11char_traitsIcESaIcEEEmimi
libffado.so.2:_ZN4Dice9Focusrite9Saffire568discoverEv
libffado.so.2:_ZN4Dice9Focusrite9Saffire569createEAPEv
libffado.so.2:_ZN4Dice9Focusrite9Saffire56C1ER13DeviceManagerSt10shared_ptrI9ConfigRomE
libffado.so.2:_ZN4Dice9Focusrite9Saffire56C2ER13DeviceManagerSt10shared_ptrI9ConfigRomE
libffado.so.2:_ZN4Dice9Focusrite9Saffire56D0Ev
libffado.so.2:_ZN4Dice9Focusrite9Saffire56D1Ev
libffado.so.2:_ZN4Dice9Focusrite9Saffire56D2Ev
libffado.so.2:_ZN4Motu10ChannelPan8getValueEv
libffado.so.2:_ZN4Motu10ChannelPan8setValueEi
libffado.so.2:_ZN4Motu10ChannelPanC1ERNS_10MotuDeviceEj
libffado.so.2:_ZN4Motu10ChannelPanC1ERNS_10MotuDeviceEjNSt7__cxx1112basic_stringIcSt11char_traitsIcESaIcEEES8_S8_
libffado.so.2:_ZN4Motu10ChannelPanC2ERNS_10MotuDeviceEj
libffado.so.2:_ZN4Motu10ChannelPanC2ERNS_10MotuDeviceEjNSt7__cxx1112basic_stringIcSt11char_traitsIcESaIcEEES8_S8_
libffado.so.2:_ZN4Motu10MotuDevice10buildMixerEv
libffado.so.2:_ZN4Motu10MotuDevice10showDeviceEv
libffado.so.2:_ZN4Motu10MotuDevice10writeBlockEmPji
libffado.so.2:_ZN4Motu10MotuDevice12ReadRegisterEm
libffado.so.2:_ZN4Motu10MotuDevice12createDeviceER13DeviceManagerSt10shared_ptrI9ConfigRomE
libffado.so.2:_ZN4Motu10MotuDevice12destroyMixerEv
libffado.so.2:_ZN4Motu10MotuDevice12getEventSizeEj
libffado.so.2:_ZN4Motu10MotuDevice13WriteRegisterEmj
libffado.so.2:_ZN4Motu10MotuDevice14getOpticalModeEjPjS1_
libffado.so.2:_ZN4Motu10MotuDevice14getStreamCountEv
libffado.so.2:_ZN4Motu10MotuDevice14setOpticalModeEjjj
libffado.so.2:_ZN4Motu10MotuDevice16addDirPortGroupsEN9Streaming4Port11E_DirectionEjjj
libffado.so.2:_ZN4Motu10MotuDevice16getHwClockSourceEv
libffado.so.2:_ZN4Motu10MotuDevice17getIsoRecvChannelEv
libffado.so.2:_ZN4Motu10MotuDevice17getIsoSendChannelEv
libffado.so.2:_ZN4Motu10MotuDevice17getStreamingStateEv
libffado.so.2:_ZN4Motu10MotuDevice17initDirPortGroupsEN9Streaming4Port11E_DirectionEjjj
libffado.so.2:_ZN4Motu10MotuDevice17stopStreamByIndexEi
libffado.so.2:_ZN4Motu10MotuDevice18getConfigurationIdEv
libffado.so.2:_ZN4Motu10MotuDevice18startStreamByIndexEi
libffado.so.2:_ZN4Motu10MotuDevice19getDeviceGenerationEv
libffado.so.2:_ZN4Motu10MotuDevice20clockIdToClockSourceEj
libffado.so.2:_ZN4Motu10MotuDevice20getActiveClockSourceEv
libffado.so.2:_ZN4Motu10MotuDevice20getSamplingFrequencyEv
libffado.so.2:_ZN4Motu10MotuDevice20setActiveClockSourceEN11FFADODevice11ClockSourceE
libffado.so.2:_ZN4Motu10MotuDevice20setClockCtrlRegisterEij
libffado.so.2:_ZN4Motu10MotuDevice20setSamplingFrequencyEi
libffado.so.2:_ZN4Motu10MotuDevice23buildMixerAudioControlsEv
libffado.so.2:_ZN4Motu10MotuDevice24getSupportedClockSourcesEv
libffado.so.2:_ZN4Motu10MotuDevice25getStreamProcessorByIndexEi
libffado.so.2:_ZN4Motu10MotuDevice28buildMark3MixerAudioControlsEv
libffado.so.2:_ZN4Motu10MotuDevice31getSupportedSamplingFrequenciesEv
libffado.so.2:_ZN4Motu10MotuDevice4lockEv
libffado.so.2:_ZN4Motu10MotuDevice5probeERN4Util13ConfigurationER9ConfigRomb
libffado.so.2:_ZN4Motu10MotuDevice6unlockEv
libffado.so.2:_ZN4Motu10MotuDevice7addPortEPN9Streaming15StreamProcessorEPcNS1_4Port11E_DirectionEii
libffado.so.2:_ZN4Motu10MotuDevice7prepareEv
libffado.so.2:_ZN4Motu10MotuDevice8discoverEv
libffado.so.2:_ZN4Motu10MotuDevice9readBlockEmPji
libffado.so.2:_ZN4Motu10MotuDeviceC1ER13DeviceManagerSt10shared_ptrI9ConfigRomE
libffado.so.2:_ZN4Motu10MotuDeviceC2ER13DeviceManagerSt10shared_ptrI9ConfigRomE
libffado.so.2:_ZN4Motu10MotuDeviceD0Ev
libffado.so.2:_ZN4Motu10MotuDeviceD1Ev
libffado.so.2:_ZN4Motu10MotuDeviceD2Ev
libffado.so.2:_ZN4Motu11InfoElement8getValueEv
libffado.so.2:_ZN4Motu11InfoElement8setValueEi
libffado.so.2:_ZN4Motu11InfoElementC1ERNS_10MotuDeviceEj
libffado.so.2:_ZN4Motu11InfoElementC1ERNS_10MotuDeviceEjNSt7__cxx1112basic_stringIcSt11char_traitsIcESaIcEEES8_S8_
libffado.so.2:_ZN4Motu11InfoElementC2ERNS_10MotuDeviceEj
libffado.so.2:_ZN4Motu11InfoElementC2ERNS_10MotuDeviceEjNSt7__cxx1112basic_stringIcSt11char_traitsIcESaIcEEES8_S8_
libffado.so.2:_ZN4Motu11OpticalMode8getValueEv
libffado.so.2:_ZN4Motu11OpticalMode8setValueEi
libffado.so.2:_ZN4Motu11OpticalModeC1ERNS_10MotuDeviceEj
libffado.so.2:_ZN4Motu11OpticalModeC1ERNS_10MotuDeviceEjNSt7__cxx1112basic_stringIcSt11char_traitsIcESaIcEEES8_S8_
libffado.so.2:_ZN4Motu11OpticalModeC2ERNS_10MotuDeviceEj
libffado.so.2:_ZN4Motu11OpticalModeC2ERNS_10MotuDeviceEjNSt7__cxx1112basic_stringIcSt11char_traitsIcESaIcEEES8_S8_
libffado.so.2:_ZN4Motu12ChannelFader8getValueEv
libffado.so.2:_ZN4Motu12ChannelFader8setValueEi
libffado.so.2:_ZN4Motu12ChannelFaderC1ERNS_10MotuDeviceEj
libffado.so.2:_ZN4Motu12ChannelFaderC1ERNS_10MotuDeviceEjNSt7__cxx1112basic_stringIcSt11char_traitsIcESaIcEEES8_S8_
libffado.so.2:_ZN4Motu12ChannelFaderC2ERNS_10MotuDeviceEj
libffado.so.2:_ZN4Motu12ChannelFaderC2ERNS_10MotuDeviceEjNSt7__cxx1112basic_stringIcSt11char_traitsIcESaIcEEES8_S8_
libffado.so.2:_ZN4Motu12MeterControl8getValueEv
libffado.so.2:_ZN4Motu12MeterControl8setValueEi
libffado.so.2:_ZN4Motu12MeterControl8validateEv
libffado.so.2:_ZN4Motu12MeterControlC1ERNS_10MotuDeviceEjj
libffado.so.2:_ZN4Motu12MeterControlC1ERNS_10MotuDeviceEjjNSt7__cxx1112basic_stringIcSt11char_traitsIcESaIcEEES8_S8_
libffado.so.2:_ZN4Motu12MeterControlC2ERNS_10MotuDeviceEjj
libffado.so.2:_ZN4Motu12MeterControlC2ERNS_10MotuDeviceEjjNSt7__cxx1112basic_stringIcSt11char_traitsIcESaIcEEES8_S8_
libffado.so.2:_ZN4Motu15InputGainPadInv12dev_registerEv
libffado.so.2:_ZN4Motu15InputGainPadInv8getValueEv
libffado.so.2:_ZN4Motu15InputGainPadInv8setValueEi
libffado.so.2:_ZN4Motu15InputGainPadInv8validateEv
libffado.so.2:_ZN4Motu15InputGainPadInvC1ERNS_10MotuDeviceEjj
libffado.so.2:_ZN4Motu15InputGainPadInvC1ERNS_10MotuDeviceEjjNSt7__cxx1112basic_stringIcSt11char_traitsIcESaIcEEES8_S8_
libffado.so.2:_ZN4Motu15InputGainPadInvC2ERNS_10MotuDeviceEjj
libffado.so.2:_ZN4Motu15InputGainPadInvC2ERNS_10MotuDeviceEjjNSt7__cxx1112basic_stringIcSt11char_traitsIcESaIcEEES8_S8_
libffado.so.2:_ZN4Motu15MotuMatrixMixer10addColInfoENSt7__cxx1112basic_stringIcSt11char_traitsIcESaIcEEEjj
libffado.so.2:_ZN4Motu15MotuMatrixMixer10addRowInfoENSt7__cxx1112basic_stringIcSt11char_traitsIcESaIcEEEjj
libffado.so.2:_ZN4Motu15MotuMatrixMixer10getColNameB5cxx11Ei
libffado.so.2:_ZN4Motu15MotuMatrixMixer10getRowNameB5cxx11Ei
libffado.so.2:_ZN4Motu15MotuMatrixMixer11getColCountEv
libffado.so.2:_ZN4Motu15MotuMatrixMixer11getRowCountEv
libffado.so.2:_ZN4Motu15MotuMatrixMixer15getCellRegisterEjj
libffado.so.2:_ZN4Motu15MotuMatrixMixer4showEv
libffado.so.2:_ZN4Motu15MotuMatrixMixerC1ERNS_10MotuDeviceE
libffado.so.2:_ZN4Motu15MotuMatrixMixerC1ERNS_10MotuDeviceENSt7__cxx1112basic_stringIcSt11char_traitsIcESaIcEEE
libffado.so.2:_ZN4Motu15MotuMatrixMixerC2ERNS_10MotuDeviceE
libffado.so.2:_ZN4Motu15MotuMatrixMixerC2ERNS_10MotuDeviceENSt7__cxx1112basic_stringIcSt11char_traitsIcESaIcEEE
libffado.so.2:_ZN4Motu16MotuBinarySwitch8getValueEv
libffado.so.2:_ZN4Motu16MotuBinarySwitch8setValueEi
libffado.so.2:_ZN4Motu16MotuBinarySwitchC1ERNS_10MotuDeviceEjjj
libffado.so.2:_ZN4Motu16MotuBinarySwitchC1ERNS_10MotuDeviceEjjjNSt7__cxx1112basic_stringIcSt11char_traitsIcESaIcEEES8_S8_
libffado.so.2:_ZN4Motu16MotuBinarySwitchC2ERNS_10MotuDeviceEjjj
libffado.so.2:_ZN4Motu16MotuBinarySwitchC2ERNS_10MotuDeviceEjjjNSt7__cxx1112basic_stringIcSt11char_traitsIcESaIcEEES8_S8_
libffado.so.2:_ZN4Motu16MotuDiscreteCtrlC1ERNS_10MotuDeviceEj
libffado.so.2:_ZN4Motu16MotuDiscreteCtrlC1ERNS_10MotuDeviceEjNSt7__cxx1112basic_stringIcSt11char_traitsIcESaIcEEES8_S8_
libffado.so.2:_ZN4Motu16MotuDiscreteCtrlC2ERNS_10MotuDeviceEj
libffado.so.2:_ZN4Motu16MotuDiscreteCtrlC2ERNS_10MotuDeviceEjNSt7__cxx1112basic_stringIcSt11char_traitsIcESaIcEEES8_S8_
libffado.so.2:_ZN4Motu21ChannelPanMatrixMixer8getValueEii
libffado.so.2:_ZN4Motu21ChannelPanMatrixMixer8setValueEiid
libffado.so.2:_ZN4Motu21ChannelPanMatrixMixerC1ERNS_10MotuDeviceE
libffado.so.2:_ZN4Motu21ChannelPanMatrixMixerC1ERNS_10MotuDeviceENSt7__cxx1112basic_stringIcSt11char_traitsIcESaIcEEE
libffado.so.2:_ZN4Motu21ChannelPanMatrixMixerC2ERNS_10MotuDeviceE
libffado.so.2:_ZN4Motu21ChannelPanMatrixMixerC2ERNS_10MotuDeviceENSt7__cxx1112basic_stringIcSt11char_traitsIcESaIcEEE
libffado.so.2:_ZN4Motu23ChannelBinSwMatrixMixer8getValueEii
libffado.so.2:_ZN4Motu23ChannelBinSwMatrixMixer8setValueEiid
libffado.so.2:_ZN4Motu23ChannelBinSwMatrixMixerC1ERNS_10MotuDeviceE
libffado.so.2:_ZN4Motu23ChannelBinSwMatrixMixerC1ERNS_10MotuDeviceENSt7__cxx1112basic_stringIcSt11char_traitsIcESaIcEEEjj
libffado.so.2:_ZN4Motu23ChannelBinSwMatrixMixerC2ERNS_10MotuDeviceE
libffado.so.2:_ZN4Motu23ChannelBinSwMatrixMixerC2ERNS_10MotuDeviceENSt7__cxx1112basic_stringIcSt11char_traitsIcESaIcEEEjj
libffado.so.2:_ZN4Motu23ChannelFaderMatrixMixer8getValueEii
libffado.so.2:_ZN4Motu23ChannelFaderMatrixMixer8setValueEiid
libffado.so.2:_ZN4Motu23ChannelFaderMatrixMixerC1ERNS_10MotuDeviceE
libffado.so.2:_ZN4Motu23ChannelFaderMatrixMixerC1ERNS_10MotuDeviceENSt7__cxx1112basic_stringIcSt11char_traitsIcESaIcEEE
libffado.so.2:_ZN4Motu23ChannelFaderMatrixMixerC2ERNS_10MotuDeviceE
libffado.so.2:_ZN4Motu23ChannelFaderMatrixMixerC2ERNS_10MotuDeviceENSt7__cxx1112basic_stringIcSt11char_traitsIcESaIcEEE
libffado.so.2:_ZN4Motu7MixDest8getValueEv
libffado.so.2:_ZN4Motu7MixDest8setValueEi
libffado.so.2:_ZN4Motu7MixDestC1ERNS_10MotuDeviceEj
libffado.so.2:_ZN4Motu7MixDestC1ERNS_10MotuDeviceEjNSt7__cxx1112basic_stringIcSt11char_traitsIcESaIcEEES8_S8_
libffado.so.2:_ZN4Motu7MixDestC2ERNS_10MotuDeviceEj
libffado.so.2:_ZN4Motu7MixDestC2ERNS_10MotuDeviceEjNSt7__cxx1112basic_stringIcSt11char_traitsIcESaIcEEES8_S8_
libffado.so.2:_ZN4Motu7MixMute8getValueEv
libffado.so.2:_ZN4Motu7MixMute8setValueEi
libffado.so.2:_ZN4Motu7MixMuteC1ERNS_10MotuDeviceEj
libffado.so.2:_ZN4Motu7MixMuteC1ERNS_10MotuDeviceEjNSt7__cxx1112basic_stringIcSt11char_traitsIcESaIcEEES8_S8_
libffado.so.2:_ZN4Motu7MixMuteC2ERNS_10MotuDeviceEj
libffado.so.2:_ZN4Motu7MixMuteC2ERNS_10MotuDeviceEjNSt7__cxx1112basic_stringIcSt11char_traitsIcESaIcEEES8_S8_
libffado.so.2:_ZN4Motu8MixFader8getValueEv
libffado.so.2:_ZN4Motu8MixFader8setValueEi
libffado.so.2:_ZN4Motu8MixFaderC1ERNS_10MotuDeviceEj
libffado.so.2:_ZN4Motu8MixFaderC1ERNS_10MotuDeviceEjNSt7__cxx1112basic_stringIcSt11char_traitsIcESaIcEEES8_S8_
libffado.so.2:_ZN4Motu8MixFaderC2ERNS_10MotuDeviceEj
libffado.so.2:_ZN4Motu8MixFaderC2ERNS_10MotuDeviceEjNSt7__cxx1112basic_stringIcSt11char_traitsIcESaIcEEES8_S8_
libffado.so.2:_ZN4Motu9PhonesSrc8getValueEv
libffado.so.2:_ZN4Motu9PhonesSrc8setValueEi
libffado.so.2:_ZN4Motu9PhonesSrcC1ERNS_10MotuDeviceE
libffado.so.2:_ZN4Motu9PhonesSrcC1ERNS_10MotuDeviceENSt7__cxx1112basic_stringIcSt11char_traitsIcESaIcEEES8_S8_
libffado.so.2:_ZN4Motu9PhonesSrcC2ERNS_10MotuDeviceE
libffado.so.2:_ZN4Motu9PhonesSrcC2ERNS_10MotuDeviceENSt7__cxx1112basic_stringIcSt11char_traitsIcESaIcEEES8_S8_
libffado.so.2:_ZN4Util10PosixMutex4LockEv
libffado.so.2:_ZN4Util10PosixMutex4showEv
libffado.so.2:_ZN4Util10PosixMutex6UnlockEv
libffado.so.2:_ZN4Util10PosixMutex7TryLockEv
libffado.so.2:_ZN4Util10PosixMutex8isLockedEv
libffado.so.2:_ZN4Util10PosixMutexC1ENSt7__cxx1112basic_stringIcSt11char_traitsIcESaIcEEE
libffado.so.2:_ZN4Util10PosixMutexC1Ev
libffado.so.2:_ZN4Util10PosixMutexC2ENSt7__cxx1112basic_stringIcSt11char_traitsIcESaIcEEE
libffado.so.2:_ZN4Util10PosixMutexC2Ev
libffado.so.2:_ZN4Util10PosixMutexD0Ev
libffado.so.2:_ZN4Util10PosixMutexD1Ev
libffado.so.2:_ZN4Util10PosixMutexD2Ev
libffado.so.2:_ZN4Util11PosixThread11GetThreadIDEv
libffado.so.2:_ZN4Util11PosixThread12DropRealTimeEv
libffado.so.2:_ZN4Util11PosixThread13ThreadHandlerEPv
libffado.so.2:_ZN4Util11PosixThread15AcquireRealTimeEi
libffado.so.2:_ZN4Util11PosixThread15AcquireRealTimeEv
libffado.so.2:_ZN4Util11PosixThread4KillEv
libffado.so.2:_ZN4Util11PosixThread4StopEv
libffado.so.2:_ZN4Util11PosixThread5StartEv
libffado.so.2:_ZN4Util12XMLSerialize11getNodePathEPN5xmlpp7ElementERSt6vectorINSt7__cxx1112basic_stringIcSt11char_traitsIcESaIcEEESaISA_EE
libffado.so.2:_ZN4Util12XMLSerialize12writeVersionEv
libffado.so.2:_ZN4Util12XMLSerialize5writeENSt7__cxx1112basic_stringIcSt11char_traitsIcESaIcEEES6_
libffado.so.2:_ZN4Util12XMLSerialize5writeENSt7__cxx1112basic_stringIcSt11char_traitsIcESaIcEEEx
libffado.so.2:_ZN4Util12XMLSerializeC1ENSt7__cxx1112basic_stringIcSt11char_traitsIcESaIcEEE
libffado.so.2:_ZN4Util12XMLSerializeC1ENSt7__cxx1112basic_stringIcSt11char_traitsIcESaIcEEEi
libffado.so.2:_ZN4Util12XMLSerializeC2ENSt7__cxx1112basic_stringIcSt11char_traitsIcESaIcEEE
libffado.so.2:_ZN4Util12XMLSerializeC2ENSt7__cxx1112basic_stringIcSt11char_traitsIcESaIcEEEi
libffado.so.2:_ZN4Util12XMLSerializeD0Ev
libffado.so.2:_ZN4Util12XMLSerializeD1Ev
libffado.so.2:_ZN4Util12XMLSerializeD2Ev
libffado.so.2:_ZN4Util13Configuration10ConfigFile11showSettingERN9libconfig7SettingENSt7__cxx1112basic_stringIcSt11char_traitsIcESaIcEEE
libffado.so.2:_ZN4Util13Configuration10ConfigFile4showEv
libffado.so.2:_ZN4Util13Configuration10ConfigFile8readFileEv
libffado.so.2:_ZN4Util13Configuration10ConfigFile9writeFileEv
libffado.so.2:_ZN4Util13Configuration10getSettingENSt7__cxx1112basic_stringIcSt11char_traitsIcESaIcEEE
libffado.so.2:_ZN4Util13Configuration12findFileNameENSt7__cxx1112basic_stringIcSt11char_traitsIcESaIcEEE
libffado.so.2:_ZN4Util13Configuration13findDeviceVMEEjj
libffado.so.2:_ZN4Util13Configuration16VendorModelEntryC1ERKS1_
libffado.so.2:_ZN4Util13Configuration16VendorModelEntryC1Ev
libffado.so.2:_ZN4Util13Configuration16VendorModelEntryC2ERKS1_
libffado.so.2:_ZN4Util13Configuration16VendorModelEntryC2Ev
libffado.so.2:_ZN4Util13Configuration16VendorModelEntryD0Ev
libffado.so.2:_ZN4Util13Configuration16VendorModelEntryD1Ev
libffado.so.2:_ZN4Util13Configuration16VendorModelEntryD2Ev
libffado.so.2:_ZN4Util13Configuration16VendorModelEntryaSERKS1_
libffado.so.2:_ZN4Util13Configuration16getDeviceSettingEjj
libffado.so.2:_ZN4Util13Configuration18getValueForSettingENSt7__cxx1112basic_stringIcSt11char_traitsIcESaIcEEERf
libffado.so.2:_ZN4Util13Configuration18getValueForSettingENSt7__cxx1112basic_stringIcSt11char_traitsIcESaIcEEERi
libffado.so.2:_ZN4Util13Configuration18getValueForSettingENSt7__cxx1112basic_stringIcSt11char_traitsIcESaIcEEERl
libffado.so.2:_ZN4Util13Configuration18isDeviceVMEPresentEjj
libffado.so.2:_ZN4Util13Configuration24getValueForDeviceSettingEjjNSt7__cxx1112basic_stringIcSt11char_traitsIcESaIcEEERf
libffado.so.2:_ZN4Util13Configuration24getValueForDeviceSettingEjjNSt7__cxx1112basic_stringIcSt11char_traitsIcESaIcEEERi
libffado.so.2:_ZN4Util13Configuration24getValueForDeviceSettingEjjNSt7__cxx1112basic_stringIcSt11char_traitsIcESaIcEEERl
libffado.so.2:_ZN4Util13Configuration4saveEv
libffado.so.2:_ZN4Util13Configuration4showEv
libffado.so.2:_ZN4Util13Configuration7isValidERKNS0_16VendorModelEntryE
libffado.so.2:_ZN4Util13Configuration8openFileENSt7__cxx1112basic_stringIcSt11char_traitsIcESaIcEEENS0_9eFileModeE
libffado.so.2:_ZN4Util13Configuration8saveFileENSt7__cxx1112basic_stringIcSt11char_traitsIcESaIcEEE
libffado.so.2:_ZN4Util13Configuration9closeFileENSt7__cxx1112basic_stringIcSt11char_traitsIcESaIcEEE
libffado.so.2:_ZN4Util13ConfigurationC1Ev
libffado.so.2:_ZN4Util13ConfigurationC2Ev
libffado.so.2:_ZN4Util13ConfigurationD0Ev
libffado.so.2:_ZN4Util13ConfigurationD1Ev
libffado.so.2:_ZN4Util13ConfigurationD2Ev
libffado.so.2:_ZN4Util13IpcRingBuffer10IpcMessage11deserializeEPKcjj
libffado.so.2:_ZN4Util13IpcRingBuffer10IpcMessage9serializeEPc
libffado.so.2:_ZN4Util13IpcRingBuffer11waitForReadEv
libffado.so.2:_ZN4Util13IpcRingBuffer12waitForWriteEv
libffado.so.2:_ZN4Util13IpcRingBuffer13getBufferFillEv
libffado.so.2:_ZN4Util13IpcRingBuffer15setVerboseLevelEi
libffado.so.2:_ZN4Util13IpcRingBuffer19notificationHandlerEv
libffado.so.2:_ZN4Util13IpcRingBuffer19releaseBlockForReadEv
libffado.so.2:_ZN4Util13IpcRingBuffer19requestBlockForReadEPPv
libffado.so.2:_ZN4Util13IpcRingBuffer20releaseBlockForWriteEv
libffado.so.2:_ZN4Util13IpcRingBuffer20requestBlockForWriteEPPv
libffado.so.2:_ZN4Util13IpcRingBuffer4ReadEPc
libffado.so.2:_ZN4Util13IpcRingBuffer4initEv
libffado.so.2:_ZN4Util13IpcRingBuffer4showEv
libffado.so.2:_ZN4Util13IpcRingBuffer5WriteEPc
libffado.so.2:_ZN4Util13IpcRingBufferC1ENSt7__cxx1112basic_stringIcSt11char_traitsIcESaIcEEENS0_11eBufferTypeENS0_10eDirectionENS0_9eBlockingEjj
libffado.so.2:_ZN4Util13IpcRingBufferC2ENSt7__cxx1112basic_stringIcSt11char_traitsIcESaIcEEENS0_11eBufferTypeENS0_10eDirectionENS0_9eBlockingEjj
libffado.so.2:_ZN4Util13IpcRingBufferD1Ev
libffado.so.2:_ZN4Util13IpcRingBufferD2Ev
libffado.so.2:_ZN4Util14XMLDeserialize10isExistingENSt7__cxx1112basic_stringIcSt11char_traitsIcESaIcEEE
libffado.so.2:_ZN4Util14XMLDeserialize12checkVersionEv
libffado.so.2:_ZN4Util14XMLDeserialize4readENSt7__cxx1112basic_stringIcSt11char_traitsIcESaIcEEERS6_
libffado.so.2:_ZN4Util14XMLDeserialize4readENSt7__cxx1112basic_stringIcSt11char_traitsIcESaIcEEERx
libffado.so.2:_ZN4Util14XMLDeserialize7isValidEv
libffado.so.2:_ZN4Util14XMLDeserializeC1ENSt7__cxx1112basic_stringIcSt11char_traitsIcESaIcEEE
libffado.so.2:_ZN4Util14XMLDeserializeC1ENSt7__cxx1112basic_stringIcSt11char_traitsIcESaIcEEEi
libffado.so.2:_ZN4Util14XMLDeserializeC2ENSt7__cxx1112basic_stringIcSt11char_traitsIcESaIcEEE
libffado.so.2:_ZN4Util14XMLDeserializeC2ENSt7__cxx1112basic_stringIcSt11char_traitsIcESaIcEEEi
libffado.so.2:_ZN4Util14XMLDeserializeD0Ev
libffado.so.2:_ZN4Util14XMLDeserializeD1Ev
libffado.so.2:_ZN4Util14XMLDeserializeD2Ev
libffado.so.2:_ZN4Util15DelayLockedLoop13setIntegratorEjf
libffado.so.2:_ZN4Util15DelayLockedLoop14getCoefficientEj
libffado.so.2:_ZN4Util15DelayLockedLoop14setCoefficientEjf
libffado.so.2:_ZN4Util15DelayLockedLoop3getEv
libffado.so.2:_ZN4Util15DelayLockedLoop3putEf
libffado.so.2:_ZN4Util15DelayLockedLoop5resetEv
libffado.so.2:_ZN4Util15DelayLockedLoop8getErrorEv
libffado.so.2:_ZN4Util15DelayLockedLoop8getOrderEv
libffado.so.2:_ZN4Util15DelayLockedLoop8setOrderEj
libffado.so.2:_ZN4Util15DelayLockedLoop8setOrderEjPf
libffado.so.2:_ZN4Util15DelayLockedLoopC1Ej
libffado.so.2:_ZN4Util15DelayLockedLoopC1EjPf
libffado.so.2:_ZN4Util15DelayLockedLoopC1Ev
libffado.so.2:_ZN4Util15DelayLockedLoopC2Ej
libffado.so.2:_ZN4Util15DelayLockedLoopC2EjPf
libffado.so.2:_ZN4Util15DelayLockedLoopC2Ev
libffado.so.2:_ZN4Util15DelayLockedLoopD0Ev
libffado.so.2:_ZN4Util15DelayLockedLoopD1Ev
libffado.so.2:_ZN4Util15DelayLockedLoopD2Ev
libffado.so.2:_ZN4Util15OptionContainer10findOptionENS0_6OptionE
libffado.so.2:_ZN4Util15OptionContainer10findOptionENSt7__cxx1112basic_stringIcSt11char_traitsIcESaIcEEE
libffado.so.2:_ZN4Util15OptionContainer12removeOptionENS0_6OptionE
libffado.so.2:_ZN4Util15OptionContainer12removeOptionENSt7__cxx1112basic_stringIcSt11char_traitsIcESaIcEEE
libffado.so.2:_ZN4Util15OptionContainer13getOptionTypeENSt7__cxx1112basic_stringIcSt11char_traitsIcESaIcEEE
libffado.so.2:_ZN4Util15OptionContainer18deserializeOptionsENSt7__cxx1112basic_stringIcSt11char_traitsIcESaIcEEERNS_13IODeserializeERS0_
libffado.so.2:_ZN4Util15OptionContainer6Option11deserializeENSt7__cxx1112basic_stringIcSt11char_traitsIcESaIcEEERNS_13IODeserializeE
libffado.so.2:_ZN4Util15OptionContainer6Option3setENSt7__cxx1112basic_stringIcSt11char_traitsIcESaIcEEE
libffado.so.2:_ZN4Util15OptionContainer6Option3setEb
libffado.so.2:_ZN4Util15OptionContainer6Option3setEd
libffado.so.2:_ZN4Util15OptionContainer6Option3setEl
libffado.so.2:_ZN4Util15OptionContainer6Option3setEm
libffado.so.2:_ZN4Util15OptionContainer6OptionC1ENSt7__cxx1112basic_stringIcSt11char_traitsIcESaIcEEE
libffado.so.2:_ZN4Util15OptionContainer6OptionC1ENSt7__cxx1112basic_stringIcSt11char_traitsIcESaIcEEES7_
libffado.so.2:_ZN4Util15OptionContainer6OptionC1ENSt7__cxx1112basic_stringIcSt11char_traitsIcESaIcEEEb
libffado.so.2:_ZN4Util15OptionContainer6OptionC1ENSt7__cxx1112basic_stringIcSt11char_traitsIcESaIcEEEd
libffado.so.2:_ZN4Util15OptionContainer6OptionC1ENSt7__cxx1112basic_stringIcSt11char_traitsIcESaIcEEEl
libffado.so.2:_ZN4Util15OptionContainer6OptionC1ENSt7__cxx1112basic_stringIcSt11char_traitsIcESaIcEEEm
libffado.so.2:_ZN4Util15OptionContainer6OptionC1Ev
libffado.so.2:_ZN4Util15OptionContainer6OptionC2ENSt7__cxx1112basic_stringIcSt11char_traitsIcESaIcEEE
libffado.so.2:_ZN4Util15OptionContainer6OptionC2ENSt7__cxx1112basic_stringIcSt11char_traitsIcESaIcEEES7_
libffado.so.2:_ZN4Util15OptionContainer6OptionC2ENSt7__cxx1112basic_stringIcSt11char_traitsIcESaIcEEEb
libffado.so.2:_ZN4Util15OptionContainer6OptionC2ENSt7__cxx1112basic_stringIcSt11char_traitsIcESaIcEEEd
libffado.so.2:_ZN4Util15OptionContainer6OptionC2ENSt7__cxx1112basic_stringIcSt11char_traitsIcESaIcEEEl
libffado.so.2:_ZN4Util15OptionContainer6OptionC2ENSt7__cxx1112basic_stringIcSt11char_traitsIcESaIcEEEm
libffado.so.2:_ZN4Util15OptionContainer6OptionC2Ev
libffado.so.2:_ZN4Util15OptionContainer9addOptionENS0_6OptionE
libffado.so.2:_ZN4Util15OptionContainer9getOptionENSt7__cxx1112basic_stringIcSt11char_traitsIcESaIcEEE
libffado.so.2:_ZN4Util15OptionContainer9getOptionENSt7__cxx1112basic_stringIcSt11char_traitsIcESaIcEEERS6_
libffado.so.2:_ZN4Util15OptionContainer9getOptionENSt7__cxx1112basic_stringIcSt11char_traitsIcESaIcEEERa
libffado.so.2:_ZN4Util15OptionContainer9getOptionENSt7__cxx1112basic_stringIcSt11char_traitsIcESaIcEEERb
libffado.so.2:_ZN4Util15OptionContainer9getOptionENSt7__cxx1112basic_stringIcSt11char_traitsIcESaIcEEERd
libffado.so.2:_ZN4Util15OptionContainer9getOptionENSt7__cxx1112basic_stringIcSt11char_traitsIcESaIcEEERf
libffado.so.2:_ZN4Util15OptionContainer9getOptionENSt7__cxx1112basic_stringIcSt11char_traitsIcESaIcEEERh
libffado.so.2:_ZN4Util15OptionContainer9getOptionENSt7__cxx1112basic_stringIcSt11char_traitsIcESaIcEEERi
libffado.so.2:_ZN4Util15OptionContainer9getOptionENSt7__cxx1112basic_stringIcSt11char_traitsIcESaIcEEERj
libffado.so.2:_ZN4Util15OptionContainer9getOptionENSt7__cxx1112basic_stringIcSt11char_traitsIcESaIcEEERl
libffado.so.2:_ZN4Util15OptionContainer9getOptionENSt7__cxx1112basic_stringIcSt11char_traitsIcESaIcEEERm
libffado.so.2:_ZN4Util15OptionContainer9getOptionENSt7__cxx1112basic_stringIcSt11char_traitsIcESaIcEEERs
libffado.so.2:_ZN4Util15OptionContainer9getOptionENSt7__cxx1112basic_stringIcSt11char_traitsIcESaIcEEERt
libffado.so.2:_ZN4Util15OptionContainer9hasOptionENS0_6OptionE
libffado.so.2:_ZN4Util15OptionContainer9hasOptionENSt7__cxx1112basic_stringIcSt11char_traitsIcESaIcEEE
libffado.so.2:_ZN4Util15OptionContainer9setOptionENS0_6OptionE
libffado.so.2:_ZN4Util15OptionContainer9setOptionENSt7__cxx1112basic_stringIcSt11char_traitsIcESaIcEEES6_
libffado.so.2:_ZN4Util15OptionContainer9setOptionENSt7__cxx1112basic_stringIcSt11char_traitsIcESaIcEEEa
libffado.so.2:_ZN4Util15OptionContainer9setOptionENSt7__cxx1112basic_stringIcSt11char_traitsIcESaIcEEEb
libffado.so.2:_ZN4Util15OptionContainer9setOptionENSt7__cxx1112basic_stringIcSt11char_traitsIcESaIcEEEd
libffado.so.2:_ZN4Util15OptionContainer9setOptionENSt7__cxx1112basic_stringIcSt11char_traitsIcESaIcEEEh
libffado.so.2:_ZN4Util15OptionContainer9setOptionENSt7__cxx1112basic_stringIcSt11char_traitsIcESaIcEEEi
libffado.so.2:_ZN4Util15OptionContainer9setOptionENSt7__cxx1112basic_stringIcSt11char_traitsIcESaIcEEEj
libffado.so.2:_ZN4Util15OptionContainer9setOptionENSt7__cxx1112basic_stringIcSt11char_traitsIcESaIcEEEl
libffado.so.2:_ZN4Util15OptionContainer9setOptionENSt7__cxx1112basic_stringIcSt11char_traitsIcESaIcEEEm
libffado.so.2:_ZN4Util15OptionContainer9setOptionENSt7__cxx1112basic_stringIcSt11char_traitsIcESaIcEEEs
libffado.so.2:_ZN4Util15OptionContainer9setOptionENSt7__cxx1112basic_stringIcSt11char_traitsIcESaIcEEEt
libffado.so.2:_ZN4Util15OptionContainerC1Ev
libffado.so.2:_ZN4Util15OptionContainerC2Ev
libffado.so.2:_ZN4Util15OptionContainerD0Ev
libffado.so.2:_ZN4Util15OptionContainerD1Ev
libffado.so.2:_ZN4Util15OptionContainerD2Ev
libffado.so.2:_ZN4Util16SystemTimeSource12clockGettimeEP8timespec
libffado.so.2:_ZN4Util16SystemTimeSource14getCurrentTimeEv
libffado.so.2:_ZN4Util16SystemTimeSource15SleepUsecRandomEm
libffado.so.2:_ZN4Util16SystemTimeSource17SleepUsecAbsoluteEm
libffado.so.2:_ZN4Util16SystemTimeSource17SleepUsecRelativeEm
libffado.so.2:_ZN4Util16SystemTimeSource21getCurrentTimeAsUsecsEv
libffado.so.2:_ZN4Util16SystemTimeSource9getSourceEv
libffado.so.2:_ZN4Util16SystemTimeSource9setSourceEi
libffado.so.2:_ZN4Util17PosixMessageQueue10canReceiveEv
libffado.so.2:_ZN4Util17PosixMessageQueue13countMessagesEv
libffado.so.2:_ZN4Util17PosixMessageQueue14notifyCallbackEv
libffado.so.2:_ZN4Util17PosixMessageQueue15setVerboseLevelEi
libffado.so.2:_ZN4Util17PosixMessageQueue18enableNotificationEv
libffado.so.2:_ZN4Util17PosixMessageQueue19disableNotificationEv
libffado.so.2:_ZN4Util17PosixMessageQueue22setNotificationHandlerEPNS_7FunctorE
libffado.so.2:_ZN4Util17PosixMessageQueue24unsetNotificationHandlerEv
libffado.so.2:_ZN4Util17PosixMessageQueue4OpenENS0_10eDirectionENS0_9eBlockingE
libffado.so.2:_ZN4Util17PosixMessageQueue4SendERNS0_7MessageE
libffado.so.2:_ZN4Util17PosixMessageQueue4WaitEv
libffado.so.2:_ZN4Util17PosixMessageQueue4showEv
libffado.so.2:_ZN4Util17PosixMessageQueue5ClearEv
libffado.so.2:_ZN4Util17PosixMessageQueue5CloseEv
libffado.so.2:_ZN4Util17PosixMessageQueue6CreateENS0_10eDirectionENS0_9eBlockingE
libffado.so.2:_ZN4Util17PosixMessageQueue6doOpenENS0_10eDirectionEiNS0_9eBlockingE
libffado.so.2:_ZN4Util17PosixMessageQueue7ReceiveERNS0_7MessageE
libffado.so.2:_ZN4Util17PosixMessageQueue7canSendEv
libffado.so.2:_ZN4Util17PosixMessageQueueC1ENSt7__cxx1112basic_stringIcSt11char_traitsIcESaIcEEE
libffado.so.2:_ZN4Util17PosixMessageQueueC2ENSt7__cxx1112basic_stringIcSt11char_traitsIcESaIcEEE
libffado.so.2:_ZN4Util17PosixMessageQueueD0Ev
libffado.so.2:_ZN4Util17PosixMessageQueueD1Ev
libffado.so.2:_ZN4Util17PosixMessageQueueD2Ev
libffado.so.2:_ZN4Util17PosixSharedMemory11commitBlockEjj
libffado.so.2:_ZN4Util17PosixSharedMemory12LockInMemoryEb
libffado.so.2:_ZN4Util17PosixSharedMemory12requestBlockEjj
libffado.so.2:_ZN4Util17PosixSharedMemory4OpenENS0_10eDirectionE
libffado.so.2:_ZN4Util17PosixSharedMemory4ReadEjPvj
libffado.so.2:_ZN4Util17PosixSharedMemory4showEv
libffado.so.2:_ZN4Util17PosixSharedMemory5CloseEv
libffado.so.2:_ZN4Util17PosixSharedMemory5WriteEjPvj
libffado.so.2:_ZN4Util17PosixSharedMemory6CreateENS0_10eDirectionE
libffado.so.2:_ZN4Util17PosixSharedMemoryC1ENSt7__cxx1112basic_stringIcSt11char_traitsIcESaIcEEEj
libffado.so.2:_ZN4Util17PosixSharedMemoryC2ENSt7__cxx1112basic_stringIcSt11char_traitsIcESaIcEEEj
libffado.so.2:_ZN4Util17PosixSharedMemoryD0Ev
libffado.so.2:_ZN4Util17PosixSharedMemoryD1Ev
libffado.so.2:_ZN4Util17PosixSharedMemoryD2Ev
libffado.so.2:_ZN4Util17TimestampedBuffer10dropFramesEj
libffado.so.2:_ZN4Util17TimestampedBuffer10readFramesEjPc
libffado.so.2:_ZN4Util17TimestampedBuffer11clearBufferEv
libffado.so.2:_ZN4Util17TimestampedBuffer11writeFramesEjPcd
libffado.so.2:_ZN4Util17TimestampedBuffer12getBandwidthEv
libffado.so.2:_ZN4Util17TimestampedBuffer12resizeBufferEj
libffado.so.2:_ZN4Util17TimestampedBuffer12setBandwidthEd
libffado.so.2:_ZN4Util17TimestampedBuffer12setEventSizeEj
libffado.so.2:_ZN4Util17TimestampedBuffer12setWrapValueEd
libffado.so.2:_ZN4Util17TimestampedBuffer13calculateRateEv
libffado.so.2:_ZN4Util17TimestampedBuffer13getBufferFillEv
libffado.so.2:_ZN4Util17TimestampedBuffer13preloadFramesEjPcb
libffado.so.2:_ZN4Util17TimestampedBuffer13setBufferSizeEj
libffado.so.2:_ZN4Util17TimestampedBuffer14getBufferSpaceEv
libffado.so.2:_ZN4Util17TimestampedBuffer14setNominalRateEf
libffado.so.2:_ZN4Util17TimestampedBuffer15getUpdatePeriodEv
libffado.so.2:_ZN4Util17TimestampedBuffer15setUpdatePeriodEj
libffado.so.2:_ZN4Util17TimestampedBuffer15writeDummyFrameEv
libffado.so.2:_ZN4Util17TimestampedBuffer17resetFrameCounterEv
libffado.so.2:_ZN4Util17TimestampedBuffer17setEventsPerFrameEj
libffado.so.2:_ZN4Util17TimestampedBuffer20getTimestampFromHeadEi
libffado.so.2:_ZN4Util17TimestampedBuffer20getTimestampFromTailEi
libffado.so.2:_ZN4Util17TimestampedBuffer21decrementFrameCounterEj
libffado.so.2:_ZN4Util17TimestampedBuffer21incrementFrameCounterEjd
libffado.so.2:_ZN4Util17TimestampedBuffer22blockProcessReadFramesEj
libffado.so.2:_ZN4Util17TimestampedBuffer22getBufferHeadTimestampEPdPi
libffado.so.2:_ZN4Util17TimestampedBuffer22getBufferTailTimestampEPdPi
libffado.so.2:_ZN4Util17TimestampedBuffer22setBufferHeadTimestampEd
libffado.so.2:_ZN4Util17TimestampedBuffer22setBufferTailTimestampEd
libffado.so.2:_ZN4Util17TimestampedBuffer23blockProcessWriteFramesEjd
libffado.so.2:_ZN4Util17TimestampedBuffer7getRateEv
libffado.so.2:_ZN4Util17TimestampedBuffer7prepareEv
libffado.so.2:_ZN4Util17TimestampedBuffer7setRateEf
libffado.so.2:_ZN4Util17TimestampedBuffer8dumpInfoEv
libffado.so.2:_ZN4Util17TimestampedBufferC1EPNS_23TimestampedBufferClientE
libffado.so.2:_ZN4Util17TimestampedBufferC2EPNS_23TimestampedBufferClientE
libffado.so.2:_ZN4Util17TimestampedBufferD0Ev
libffado.so.2:_ZN4Util17TimestampedBufferD1Ev
libffado.so.2:_ZN4Util17TimestampedBufferD2Ev
libffado.so.2:_ZN4Util3Cmd14CoutSerializer5writeEPKcmS3_
libffado.so.2:_ZN4Util3Cmd14CoutSerializer5writeEhPKc
libffado.so.2:_ZN4Util3Cmd14CoutSerializer5writeEjPKc
libffado.so.2:_ZN4Util3Cmd14CoutSerializer5writeEtPKc
libffado.so.2:_ZN4Util3Cmd15BufferSerialize5writeEPKcmS3_
libffado.so.2:_ZN4Util3Cmd15BufferSerialize5writeEhPKc
libffado.so.2:_ZN4Util3Cmd15BufferSerialize5writeEjPKc
libffado.so.2:_ZN4Util3Cmd15BufferSerialize5writeEtPKc
libffado.so.2:_ZN4Util3Cmd16StringSerializer5writeEPKcmS3_
libffado.so.2:_ZN4Util3Cmd16StringSerializer5writeEhPKc
libffado.so.2:_ZN4Util3Cmd16StringSerializer5writeEjPKc
libffado.so.2:_ZN4Util3Cmd16StringSerializer5writeEtPKc
libffado.so.2:_ZN4Util3Cmd17BufferDeserialize4peekEPh
libffado.so.2:_ZN4Util3Cmd17BufferDeserialize4peekEPtm
libffado.so.2:_ZN4Util3Cmd17BufferDeserialize4readEPPcm
libffado.so.2:_ZN4Util3Cmd17BufferDeserialize4readEPh
libffado.so.2:_ZN4Util3Cmd17BufferDeserialize4readEPj
libffado.so.2:_ZN4Util3Cmd17BufferDeserialize4readEPt
libffado.so.2:_ZN4Util3Cmd17BufferDeserialize4skipEm
libffado.so.2:_ZN4Util8Watchdog12WatchdogTask4InitEv
libffado.so.2:_ZN4Util8Watchdog12WatchdogTask7ExecuteEv
libffado.so.2:_ZN4Util8Watchdog12WatchdogTask7ReqStopEv
libffado.so.2:_ZN4Util8Watchdog12WatchdogTaskC1ERS0_j
libffado.so.2:_ZN4Util8Watchdog12WatchdogTaskC2ERS0_j
libffado.so.2:_ZN4Util8Watchdog12WatchdogTaskD0Ev
libffado.so.2:_ZN4Util8Watchdog12WatchdogTaskD1Ev
libffado.so.2:_ZN4Util8Watchdog12WatchdogTaskD2Ev
libffado.so.2:_ZN4Util8Watchdog14registerThreadEPNS_6ThreadE
libffado.so.2:_ZN4Util8Watchdog15setVerboseLevelEi
libffado.so.2:_ZN4Util8Watchdog16unregisterThreadEPNS_6ThreadE
libffado.so.2:_ZN4Util8Watchdog17WatchdogCheckTask4InitEv
libffado.so.2:_ZN4Util8Watchdog17WatchdogCheckTask7ExecuteEv
libffado.so.2:_ZN4Util8Watchdog17WatchdogCheckTaskC1ERS0_j
libffado.so.2:_ZN4Util8Watchdog17WatchdogCheckTaskC2ERS0_j
libffado.so.2:_ZN4Util8Watchdog17rescheduleThreadsEv
libffado.so.2:_ZN4Util8Watchdog19setThreadParametersEbi
libffado.so.2:_ZN4Util8Watchdog20WatchdogHartbeatTask4InitEv
libffado.so.2:_ZN4Util8Watchdog20WatchdogHartbeatTask7ExecuteEv
libffado.so.2:_ZN4Util8Watchdog20WatchdogHartbeatTaskC1ERS0_j
libffado.so.2:_ZN4Util8Watchdog20WatchdogHartbeatTaskC2ERS0_j
libffado.so.2:_ZN4Util8Watchdog5startEv
libffado.so.2:_ZN4Util8WatchdogC1Ejbj
libffado.so.2:_ZN4Util8WatchdogC1Ev
libffado.so.2:_ZN4Util8WatchdogC2Ejbj
libffado.so.2:_ZN4Util8WatchdogC2Ev
libffado.so.2:_ZN4Util8WatchdogD0Ev
libffado.so.2:_ZN4Util8WatchdogD1Ev
libffado.so.2:_ZN4Util8WatchdogD2Ev
libffado.so.2:_ZN5BeBoB10makeStringB5cxx11Em
libffado.so.2:_ZN5BeBoB12CommandCodes10getMaxSizeEv
libffado.so.2:_ZN5BeBoB12CommandCodes11deserializeERN4Util3Cmd14IISDeserializeE
libffado.so.2:_ZN5BeBoB12CommandCodes9serializeERN4Util3Cmd12IOSSerializeE
libffado.so.2:_ZN5BeBoB12CommandCodesC1Ejhmhh
libffado.so.2:_ZN5BeBoB12CommandCodesC2Ejhmhh
libffado.so.2:_ZN5BeBoB12CommandCodesD0Ev
libffado.so.2:_ZN5BeBoB12CommandCodesD1Ev
libffado.so.2:_ZN5BeBoB12CommandCodesD2Ev
libffado.so.2:_ZN5BeBoB12SubunitAudio10createPlugEPN3AVC4UnitEPNS1_7SubunitEhhNS1_4Plug16EPlugAddressTypeENS6_14EPlugDirectionEh
libffado.so.2:_ZN5BeBoB12SubunitAudio16deserializeChildENSt7__cxx1112basic_stringIcSt11char_traitsIcESaIcEEERN4Util13IODeserializeERN3AVC4UnitE
libffado.so.2:_ZN5BeBoB12SubunitAudio19createFunctionBlockEN3AVC22ExtendedSubunitInfoCmd18EFunctionBlockTypeERNS1_27ExtendedSubunitInfoPageDataE
libffado.so.2:_ZN5BeBoB12SubunitAudio19discoverConnectionsEv
libffado.so.2:_ZN5BeBoB12SubunitAudio21convertSpecialPurposeEh
libffado.so.2:_ZN5BeBoB12SubunitAudio22deserializeUpdateChildENSt7__cxx1112basic_stringIcSt11char_traitsIcESaIcEEERN4Util13IODeserializeE
libffado.so.2:_ZN5BeBoB12SubunitAudio22discoverFunctionBlocksEv
libffado.so.2:_ZN5BeBoB12SubunitAudio24discoverFunctionBlocksDoEN3AVC22ExtendedSubunitInfoCmd18EFunctionBlockTypeE
libffado.so.2:_ZN5BeBoB12SubunitAudio7getNameEv
libffado.so.2:_ZN5BeBoB12SubunitAudio8discoverEv
libffado.so.2:_ZN5BeBoB12SubunitAudioC1ERN3AVC4UnitEh
libffado.so.2:_ZN5BeBoB12SubunitAudioC1Ev
libffado.so.2:_ZN5BeBoB12SubunitAudioC2ERN3AVC4UnitEh
libffado.so.2:_ZN5BeBoB12SubunitAudioC2Ev
libffado.so.2:_ZN5BeBoB12SubunitAudioD0Ev
libffado.so.2:_ZN5BeBoB12SubunitAudioD1Ev
libffado.so.2:_ZN5BeBoB12SubunitAudioD2Ev
libffado.so.2:_ZN5BeBoB12SubunitMusic10createPlugEPN3AVC4UnitEPNS1_7SubunitEhhNS1_4Plug16EPlugAddressTypeENS6_14EPlugDirectionEh
libffado.so.2:_ZN5BeBoB12SubunitMusic16deserializeChildENSt7__cxx1112basic_stringIcSt11char_traitsIcESaIcEEERN4Util13IODeserializeERN3AVC4UnitE
libffado.so.2:_ZN5BeBoB12SubunitMusic22deserializeUpdateChildENSt7__cxx1112basic_stringIcSt11char_traitsIcESaIcEEERN4Util13IODeserializeE
libffado.so.2:_ZN5BeBoB12SubunitMusic7getNameEv
libffado.so.2:_ZN5BeBoB12SubunitMusic8discoverEv
libffado.so.2:_ZN5BeBoB12SubunitMusicC1ERN3AVC4UnitEh
libffado.so.2:_ZN5BeBoB12SubunitMusicC1Ev
libffado.so.2:_ZN5BeBoB12SubunitMusicC2ERN3AVC4UnitEh
libffado.so.2:_ZN5BeBoB12SubunitMusicC2Ev
libffado.so.2:_ZN5BeBoB12SubunitMusicD0Ev
libffado.so.2:_ZN5BeBoB12SubunitMusicD1Ev
libffado.so.2:_ZN5BeBoB12SubunitMusicD2Ev
libffado.so.2:_ZN5BeBoB13FunctionBlock11deserializeENSt7__cxx1112basic_stringIcSt11char_traitsIcESaIcEEERN4Util13IODeserializeERN3AVC4UnitERNSA_7SubunitE
libffado.so.2:_ZN5BeBoB13FunctionBlock13discoverPlugsEN3AVC4Plug14EPlugDirectionEh
libffado.so.2:_ZN5BeBoB13FunctionBlock17deserializeUpdateENSt7__cxx1112basic_stringIcSt11char_traitsIcESaIcEEERN4Util13IODeserializeE
libffado.so.2:_ZN5BeBoB13FunctionBlock19discoverConnectionsEv
libffado.so.2:_ZN5BeBoB13FunctionBlock8discoverEv
libffado.so.2:_ZN5BeBoB13FunctionBlockC1ERKS0_
libffado.so.2:_ZN5BeBoB13FunctionBlockC1ERN3AVC7SubunitEhhhNS0_15ESpecialPurposeEhhi
libffado.so.2:_ZN5BeBoB13FunctionBlockC1Ev
libffado.so.2:_ZN5BeBoB13FunctionBlockC2ERKS0_
libffado.so.2:_ZN5BeBoB13FunctionBlockC2ERN3AVC7SubunitEhhhNS0_15ESpecialPurposeEhhi
libffado.so.2:_ZN5BeBoB13FunctionBlockC2Ev
libffado.so.2:_ZN5BeBoB13FunctionBlockD0Ev
libffado.so.2:_ZN5BeBoB13FunctionBlockD1Ev
libffado.so.2:_ZN5BeBoB13FunctionBlockD2Ev
libffado.so.2:_ZN5BeBoB14CommandCodesGo11deserializeERN4Util3Cmd14IISDeserializeE
libffado.so.2:_ZN5BeBoB14CommandCodesGo9serializeERN4Util3Cmd12IOSSerializeE
libffado.so.2:_ZN5BeBoB14CommandCodesGoC1EjNS0_10EStartModeE
libffado.so.2:_ZN5BeBoB14CommandCodesGoC2EjNS0_10EStartModeE
libffado.so.2:_ZN5BeBoB14CommandCodesGoD0Ev
libffado.so.2:_ZN5BeBoB14CommandCodesGoD1Ev
libffado.so.2:_ZN5BeBoB14CommandCodesGoD2Ev
libffado.so.2:_ZN5BeBoB15MixerFBSelector8getValueEv
libffado.so.2:_ZN5BeBoB15MixerFBSelector8setValueEi
libffado.so.2:_ZN5BeBoB15MixerFBSelectorC1ERNS_5MixerERNS_21FunctionBlockSelectorE
libffado.so.2:_ZN5BeBoB15MixerFBSelectorC2ERNS_5MixerERNS_21FunctionBlockSelectorE
libffado.so.2:_ZN5BeBoB15MixerFBSelectorD0Ev
libffado.so.2:_ZN5BeBoB15MixerFBSelectorD1Ev
libffado.so.2:_ZN5BeBoB15MixerFBSelectorD2Ev
libffado.so.2:_ZN5BeBoB17BootloaderManager11downloadCnEENSt7__cxx1112basic_stringIcSt11char_traitsIcESaIcEEE
libffado.so.2:_ZN5BeBoB17BootloaderManager11programGUIDEm
libffado.so.2:_ZN5BeBoB17BootloaderManager12readResponseERNS_12CommandCodesE
libffado.so.2:_ZN5BeBoB17BootloaderManager12writeRequestERNS_12CommandCodesE
libffado.so.2:_ZN5BeBoB17BootloaderManager14downloadObjectERNS_3BCDENS0_11EObjectTypeE
libffado.so.2:_ZN5BeBoB17BootloaderManager14programGUIDCmdEm
libffado.so.2:_ZN5BeBoB17BootloaderManager15busresetHandlerEv
libffado.so.2:_ZN5BeBoB17BootloaderManager15getSoftwareDateB5cxx11Ev
libffado.so.2:_ZN5BeBoB17BootloaderManager15getSoftwareTimeB5cxx11Ev
libffado.so.2:_ZN5BeBoB17BootloaderManager15waitForBusResetEv
libffado.so.2:_ZN5BeBoB17BootloaderManager16downloadFirmwareENSt7__cxx1112basic_stringIcSt11char_traitsIcESaIcEEE
libffado.so.2:_ZN5BeBoB17BootloaderManager18cacheInfoRegistersEi
libffado.so.2:_ZN5BeBoB17BootloaderManager18cacheInfoRegistersEv
libffado.so.2:_ZN5BeBoB17BootloaderManager18printInfoRegistersEv
libffado.so.2:_ZN5BeBoB17BootloaderManager18startBootloaderCmdEv
libffado.so.2:_ZN5BeBoB17BootloaderManager19startApplicationCmdEv
libffado.so.2:_ZN5BeBoB17BootloaderManager22initializePersParamCmdEv
libffado.so.2:_ZN5BeBoB17BootloaderManager24checkDeviceCompatibilityERNS_3BCDE
libffado.so.2:_ZN5BeBoB17BootloaderManager35initializeConfigToFactorySettingCmdEv
libffado.so.2:_ZN5BeBoB17BootloaderManagerC1ER15Ieee1394Servicet
libffado.so.2:_ZN5BeBoB17BootloaderManagerC2ER15Ieee1394Servicet
libffado.so.2:_ZN5BeBoB17BootloaderManagerD1Ev
libffado.so.2:_ZN5BeBoB17BootloaderManagerD2Ev
libffado.so.2:_ZN5BeBoB17CommandCodesReset11deserializeERN4Util3Cmd14IISDeserializeE
libffado.so.2:_ZN5BeBoB17CommandCodesReset9serializeERN4Util3Cmd12IOSSerializeE
libffado.so.2:_ZN5BeBoB17CommandCodesResetC1EjNS0_10EStartModeE
libffado.so.2:_ZN5BeBoB17CommandCodesResetC2EjNS0_10EStartModeE
libffado.so.2:_ZN5BeBoB17CommandCodesResetD0Ev
libffado.so.2:_ZN5BeBoB17CommandCodesResetD1Ev
libffado.so.2:_ZN5BeBoB17CommandCodesResetD2Ev
libffado.so.2:_ZN5BeBoB18FunctionBlockCodec16deserializeChildENSt7__cxx1112basic_stringIcSt11char_traitsIcESaIcEEERN4Util13IODeserializeERNS_8AvDeviceE
libffado.so.2:_ZN5BeBoB18FunctionBlockCodec7getNameEv
libffado.so.2:_ZN5BeBoB18FunctionBlockCodecC1ERKS0_
libffado.so.2:_ZN5BeBoB18FunctionBlockCodecC1ERN3AVC7SubunitEhNS_13FunctionBlock15ESpecialPurposeEhhi
libffado.so.2:_ZN5BeBoB18FunctionBlockCodecC1Ev
libffado.so.2:_ZN5BeBoB18FunctionBlockCodecC2ERKS0_
libffado.so.2:_ZN5BeBoB18FunctionBlockCodecC2ERN3AVC7SubunitEhNS_13FunctionBlock15ESpecialPurposeEhhi
libffado.so.2:_ZN5BeBoB18FunctionBlockCodecC2Ev
libffado.so.2:_ZN5BeBoB18FunctionBlockCodecD0Ev
libffado.so.2:_ZN5BeBoB18FunctionBlockCodecD1Ev
libffado.so.2:_ZN5BeBoB18FunctionBlockCodecD2Ev
libffado.so.2:_ZN5BeBoB20FunctionBlockFeature16deserializeChildENSt7__cxx1112basic_stringIcSt11char_traitsIcESaIcEEERN4Util13IODeserializeERNS_8AvDeviceE
libffado.so.2:_ZN5BeBoB20FunctionBlockFeature7getNameEv
libffado.so.2:_ZN5BeBoB20FunctionBlockFeatureC1ERKS0_
libffado.so.2:_ZN5BeBoB20FunctionBlockFeatureC1ERN3AVC7SubunitEhNS_13FunctionBlock15ESpecialPurposeEhhi
libffado.so.2:_ZN5BeBoB20FunctionBlockFeatureC1Ev
libffado.so.2:_ZN5BeBoB20FunctionBlockFeatureC2ERKS0_
libffado.so.2:_ZN5BeBoB20FunctionBlockFeatureC2ERN3AVC7SubunitEhNS_13FunctionBlock15ESpecialPurposeEhhi
libffado.so.2:_ZN5BeBoB20FunctionBlockFeatureC2Ev
libffado.so.2:_ZN5BeBoB20FunctionBlockFeatureD0Ev
libffado.so.2:_ZN5BeBoB20FunctionBlockFeatureD1Ev
libffado.so.2:_ZN5BeBoB20FunctionBlockFeatureD2Ev
libffado.so.2:_ZN5BeBoB20MixerFBFeatureVolume10getMaximumEv
libffado.so.2:_ZN5BeBoB20MixerFBFeatureVolume10getMinimumEv
libffado.so.2:_ZN5BeBoB20MixerFBFeatureVolume8getValueEi
libffado.so.2:_ZN5BeBoB20MixerFBFeatureVolume8getValueEv
libffado.so.2:_ZN5BeBoB20MixerFBFeatureVolume8setValueEd
libffado.so.2:_ZN5BeBoB20MixerFBFeatureVolume8setValueEid
libffado.so.2:_ZN5BeBoB20MixerFBFeatureVolumeC1ERNS_5MixerERNS_20FunctionBlockFeatureE
libffado.so.2:_ZN5BeBoB20MixerFBFeatureVolumeC2ERNS_5MixerERNS_20FunctionBlockFeatureE
libffado.so.2:_ZN5BeBoB20MixerFBFeatureVolumeD0Ev
libffado.so.2:_ZN5BeBoB20MixerFBFeatureVolumeD1Ev
libffado.so.2:_ZN5BeBoB20MixerFBFeatureVolumeD2Ev
libffado.so.2:_ZN5BeBoB21FunctionBlockSelector16deserializeChildENSt7__cxx1112basic_stringIcSt11char_traitsIcESaIcEEERN4Util13IODeserializeERNS_8AvDeviceE
libffado.so.2:_ZN5BeBoB21FunctionBlockSelector7getNameEv
libffado.so.2:_ZN5BeBoB21FunctionBlockSelectorC1ERKS0_
libffado.so.2:_ZN5BeBoB21FunctionBlockSelectorC1ERN3AVC7SubunitEhNS_13FunctionBlock15ESpecialPurposeEhhi
libffado.so.2:_ZN5BeBoB21FunctionBlockSelectorC1Ev
libffado.so.2:_ZN5BeBoB21FunctionBlockSelectorC2ERKS0_
libffado.so.2:_ZN5BeBoB21FunctionBlockSelectorC2ERN3AVC7SubunitEhNS_13FunctionBlock15ESpecialPurposeEhhi
libffado.so.2:_ZN5BeBoB21FunctionBlockSelectorC2Ev
libffado.so.2:_ZN5BeBoB21FunctionBlockSelectorD0Ev
libffado.so.2:_ZN5BeBoB21FunctionBlockSelectorD1Ev
libffado.so.2:_ZN5BeBoB21FunctionBlockSelectorD2Ev
libffado.so.2:_ZN5BeBoB22EnhancedMixerFBFeature8getValueEi
libffado.so.2:_ZN5BeBoB22EnhancedMixerFBFeature8setValueEid
libffado.so.2:_ZN5BeBoB22EnhancedMixerFBFeatureC1ERNS_5MixerERNS_26FunctionBlockEnhancedMixerE
libffado.so.2:_ZN5BeBoB22EnhancedMixerFBFeatureC2ERNS_5MixerERNS_26FunctionBlockEnhancedMixerE
libffado.so.2:_ZN5BeBoB22EnhancedMixerFBFeatureD0Ev
libffado.so.2:_ZN5BeBoB22EnhancedMixerFBFeatureD1Ev
libffado.so.2:_ZN5BeBoB22EnhancedMixerFBFeatureD2Ev
libffado.so.2:_ZN5BeBoB23CommandCodesDownloadEnd11deserializeERN4Util3Cmd14IISDeserializeE
libffado.so.2:_ZN5BeBoB23CommandCodesDownloadEnd9serializeERN4Util3Cmd12IOSSerializeE
libffado.so.2:_ZN5BeBoB23CommandCodesDownloadEndC1Ej
libffado.so.2:_ZN5BeBoB23CommandCodesDownloadEndC2Ej
libffado.so.2:_ZN5BeBoB23CommandCodesDownloadEndD0Ev
libffado.so.2:_ZN5BeBoB23CommandCodesDownloadEndD1Ev
libffado.so.2:_ZN5BeBoB23CommandCodesDownloadEndD2Ev
libffado.so.2:_ZN5BeBoB23CommandCodesProgramGUID11deserializeERN4Util3Cmd14IISDeserializeE
libffado.so.2:_ZN5BeBoB23CommandCodesProgramGUID9serializeERN4Util3Cmd12IOSSerializeE
libffado.so.2:_ZN5BeBoB23CommandCodesProgramGUIDC1Ejm
libffado.so.2:_ZN5BeBoB23CommandCodesProgramGUIDC2Ejm
libffado.so.2:_ZN5BeBoB23CommandCodesProgramGUIDD0Ev
libffado.so.2:_ZN5BeBoB23CommandCodesProgramGUIDD1Ev
libffado.so.2:_ZN5BeBoB23CommandCodesProgramGUIDD2Ev
libffado.so.2:_ZN5BeBoB23FunctionBlockProcessing16deserializeChildENSt7__cxx1112basic_stringIcSt11char_traitsIcESaIcEEERN4Util13IODeserializeERNS_8AvDeviceE
libffado.so.2:_ZN5BeBoB23FunctionBlockProcessing7getNameEv
libffado.so.2:_ZN5BeBoB23FunctionBlockProcessingC1ERKS0_
libffado.so.2:_ZN5BeBoB23FunctionBlockProcessingC1ERN3AVC7SubunitEhNS_13FunctionBlock15ESpecialPurposeEhhi
libffado.so.2:_ZN5BeBoB23FunctionBlockProcessingC1Ev
libffado.so.2:_ZN5BeBoB23FunctionBlockProcessingC2ERKS0_
libffado.so.2:_ZN5BeBoB23FunctionBlockProcessingC2ERN3AVC7SubunitEhNS_13FunctionBlock15ESpecialPurposeEhhi
libffado.so.2:_ZN5BeBoB23FunctionBlockProcessingC2Ev
libffado.so.2:_ZN5BeBoB23FunctionBlockProcessingD0Ev
libffado.so.2:_ZN5BeBoB23FunctionBlockProcessingD1Ev
libffado.so.2:_ZN5BeBoB23FunctionBlockProcessingD2Ev
libffado.so.2:_ZN5BeBoB23MixerFBFeatureLRBalance10getMaximumEv
libffado.so.2:_ZN5BeBoB23MixerFBFeatureLRBalance10getMinimumEv
libffado.so.2:_ZN5BeBoB23MixerFBFeatureLRBalance8getValueEi
libffado.so.2:_ZN5BeBoB23MixerFBFeatureLRBalance8getValueEv
libffado.so.2:_ZN5BeBoB23MixerFBFeatureLRBalance8setValueEd
libffado.so.2:_ZN5BeBoB23MixerFBFeatureLRBalance8setValueEid
libffado.so.2:_ZN5BeBoB23MixerFBFeatureLRBalanceC1ERNS_5MixerERNS_20FunctionBlockFeatureE
libffado.so.2:_ZN5BeBoB23MixerFBFeatureLRBalanceC2ERNS_5MixerERNS_20FunctionBlockFeatureE
libffado.so.2:_ZN5BeBoB23MixerFBFeatureLRBalanceD0Ev
libffado.so.2:_ZN5BeBoB23MixerFBFeatureLRBalanceD1Ev
libffado.so.2:_ZN5BeBoB23MixerFBFeatureLRBalanceD2Ev
libffado.so.2:_ZN5BeBoB25CommandCodesDownloadBlock11deserializeERN4Util3Cmd14IISDeserializeE
libffado.so.2:_ZN5BeBoB25CommandCodesDownloadBlock9serializeERN4Util3Cmd12IOSSerializeE
libffado.so.2:_ZN5BeBoB25CommandCodesDownloadBlockC1Ej
libffado.so.2:_ZN5BeBoB25CommandCodesDownloadBlockC2Ej
libffado.so.2:_ZN5BeBoB25CommandCodesDownloadBlockD0Ev
libffado.so.2:_ZN5BeBoB25CommandCodesDownloadBlockD1Ev
libffado.so.2:_ZN5BeBoB25CommandCodesDownloadBlockD2Ev
libffado.so.2:_ZN5BeBoB25CommandCodesDownloadStart11deserializeERN4Util3Cmd14IISDeserializeE
libffado.so.2:_ZN5BeBoB25CommandCodesDownloadStart9serializeERN4Util3Cmd12IOSSerializeE
libffado.so.2:_ZN5BeBoB25CommandCodesDownloadStartC1EjNS0_7EObjectE
libffado.so.2:_ZN5BeBoB25CommandCodesDownloadStartC2EjNS0_7EObjectE
libffado.so.2:_ZN5BeBoB25CommandCodesDownloadStartD0Ev
libffado.so.2:_ZN5BeBoB25CommandCodesDownloadStartD1Ev
libffado.so.2:_ZN5BeBoB25CommandCodesDownloadStartD2Ev
libffado.so.2:_ZN5BeBoB26FunctionBlockEnhancedMixer16deserializeChildENSt7__cxx1112basic_stringIcSt11char_traitsIcESaIcEEERN4Util13IODeserializeERNS_8AvDeviceE
libffado.so.2:_ZN5BeBoB26FunctionBlockEnhancedMixer7getNameEv
libffado.so.2:_ZN5BeBoB26FunctionBlockEnhancedMixer8discoverEv
libffado.so.2:_ZN5BeBoB26FunctionBlockEnhancedMixerC1ERKS0_
libffado.so.2:_ZN5BeBoB26FunctionBlockEnhancedMixerC1ERN3AVC7SubunitEhNS_13FunctionBlock15ESpecialPurposeEhhi
libffado.so.2:_ZN5BeBoB26FunctionBlockEnhancedMixerC1Ev
libffado.so.2:_ZN5BeBoB26FunctionBlockEnhancedMixerC2ERKS0_
libffado.so.2:_ZN5BeBoB26FunctionBlockEnhancedMixerC2ERN3AVC7SubunitEhNS_13FunctionBlock15ESpecialPurposeEhhi
libffado.so.2:_ZN5BeBoB26FunctionBlockEnhancedMixerC2Ev
libffado.so.2:_ZN5BeBoB26FunctionBlockEnhancedMixerD0Ev
libffado.so.2:_ZN5BeBoB26FunctionBlockEnhancedMixerD1Ev
libffado.so.2:_ZN5BeBoB26FunctionBlockEnhancedMixerD2Ev
libffado.so.2:_ZN5BeBoB31CommandCodesInitializePersParam11deserializeERN4Util3Cmd14IISDeserializeE
libffado.so.2:_ZN5BeBoB31CommandCodesInitializePersParam9serializeERN4Util3Cmd12IOSSerializeE
libffado.so.2:_ZN5BeBoB31CommandCodesInitializePersParamC1Ej
libffado.so.2:_ZN5BeBoB31CommandCodesInitializePersParamC2Ej
libffado.so.2:_ZN5BeBoB31CommandCodesInitializePersParamD0Ev
libffado.so.2:_ZN5BeBoB31CommandCodesInitializePersParamD1Ev
libffado.so.2:_ZN5BeBoB31CommandCodesInitializePersParamD2Ev
libffado.so.2:_ZN5BeBoB3BCD11displayInfoEv
libffado.so.2:_ZN5BeBoB3BCD14checkHeaderCRCEjj
libffado.so.2:_ZN5BeBoB3BCD14initCRC32TableEv
libffado.so.2:_ZN5BeBoB3BCD14readHeaderInfoEv
libffado.so.2:_ZN5BeBoB3BCD4readEiPhm
libffado.so.2:_ZN5BeBoB3BCD4readEiPj
libffado.so.2:_ZN5BeBoB3BCD4readEiPm
libffado.so.2:_ZN5BeBoB3BCD5parseEv
libffado.so.2:_ZN5BeBoB3BCD6getCRCEPhm
libffado.so.2:_ZN5BeBoB3BCD7reflectEmc
libffado.so.2:_ZN5BeBoB3BCDC1ENSt7__cxx1112basic_stringIcSt11char_traitsIcESaIcEEE
libffado.so.2:_ZN5BeBoB3BCDC2ENSt7__cxx1112basic_stringIcSt11char_traitsIcESaIcEEE
libffado.so.2:_ZN5BeBoB3BCDD1Ev
libffado.so.2:_ZN5BeBoB3BCDD2Ev
libffado.so.2:_ZN5BeBoB3ESI15QuataFireDevice10showDeviceEv
libffado.so.2:_ZN5BeBoB3ESI15QuataFireDevice20getActiveClockSourceEv
libffado.so.2:_ZN5BeBoB3ESI15QuataFireDevice20setActiveClockSourceEN11FFADODevice11ClockSourceE
libffado.so.2:_ZN5BeBoB3ESI15QuataFireDevice24getSupportedClockSourcesEv
libffado.so.2:_ZN5BeBoB3ESI15QuataFireDeviceC1ER13DeviceManagerSt10shared_ptrI9ConfigRomE
libffado.so.2:_ZN5BeBoB3ESI15QuataFireDeviceC2ER13DeviceManagerSt10shared_ptrI9ConfigRomE
libffado.so.2:_ZN5BeBoB3ESI15QuataFireDeviceD0Ev
libffado.so.2:_ZN5BeBoB3ESI15QuataFireDeviceD1Ev
libffado.so.2:_ZN5BeBoB3ESI15QuataFireDeviceD2Ev
libffado.so.2:_ZN5BeBoB44CommandCodesInitializeConfigToFactorySetting11deserializeERN4Util3Cmd14IISDeserializeE
libffado.so.2:_ZN5BeBoB44CommandCodesInitializeConfigToFactorySetting9serializeERN4Util3Cmd12IOSSerializeE
libffado.so.2:_ZN5BeBoB44CommandCodesInitializeConfigToFactorySettingC1Ej
libffado.so.2:_ZN5BeBoB44CommandCodesInitializeConfigToFactorySettingC2Ej
libffado.so.2:_ZN5BeBoB44CommandCodesInitializeConfigToFactorySettingD0Ev
libffado.so.2:_ZN5BeBoB44CommandCodesInitializeConfigToFactorySettingD1Ev
libffado.so.2:_ZN5BeBoB44CommandCodesInitializeConfigToFactorySettingD2Ev
libffado.so.2:_ZN5BeBoB4Plug12discoverNameEv
libffado.so.2:_ZN5BeBoB4Plug15copyClusterInfoERN3AVC47ExtendedPlugInfoPlugChannelPositionSpecificDataE
libffado.so.2:_ZN5BeBoB4Plug16discoverPlugTypeEv
libffado.so.2:_ZN5BeBoB4Plug19discoverChannelNameEv
libffado.so.2:_ZN5BeBoB4Plug19discoverClusterInfoEv
libffado.so.2:_ZN5BeBoB4Plug19discoverConnectionsEv
libffado.so.2:_ZN5BeBoB4Plug20discoverNoOfChannelsEv
libffado.so.2:_ZN5BeBoB4Plug23discoverChannelPositionEv
libffado.so.2:_ZN5BeBoB4Plug24discoverConnectionsInputEv
libffado.so.2:_ZN5BeBoB4Plug24setPlugAddrToPlugInfoCmdEv
libffado.so.2:_ZN5BeBoB4Plug25discoverConnectionsOutputEv
libffado.so.2:_ZN5BeBoB4Plug8discoverEv
libffado.so.2:_ZN5BeBoB4PlugC1EPN3AVC4UnitEPNS1_7SubunitEhhNS1_4Plug16EPlugAddressTypeENS6_14EPlugDirectionEh
libffado.so.2:_ZN5BeBoB4PlugC1EPN3AVC4UnitEPNS1_7SubunitEhhNS1_4Plug16EPlugAddressTypeENS6_14EPlugDirectionEhi
libffado.so.2:_ZN5BeBoB4PlugC1ERKS0_
libffado.so.2:_ZN5BeBoB4PlugC1Ev
libffado.so.2:_ZN5BeBoB4PlugC2EPN3AVC4UnitEPNS1_7SubunitEhhNS1_4Plug16EPlugAddressTypeENS6_14EPlugDirectionEh
libffado.so.2:_ZN5BeBoB4PlugC2EPN3AVC4UnitEPNS1_7SubunitEhhNS1_4Plug16EPlugAddressTypeENS6_14EPlugDirectionEhi
libffado.so.2:_ZN5BeBoB4PlugC2ERKS0_
libffado.so.2:_ZN5BeBoB4PlugC2Ev
libffado.so.2:_ZN5BeBoB4PlugD0Ev
libffado.so.2:_ZN5BeBoB4PlugD1Ev
libffado.so.2:_ZN5BeBoB4PlugD2Ev
libffado.so.2:_ZN5BeBoB5Mixer13clearElementsEv
libffado.so.2:_ZN5BeBoB5Mixer13deleteElementEPN7Control7ElementE
libffado.so.2:_ZN5BeBoB5Mixer30addElementForAllFunctionBlocksEv
libffado.so.2:_ZN5BeBoB5MixerC1ERNS_6DeviceE
libffado.so.2:_ZN5BeBoB5MixerC2ERNS_6DeviceE
libffado.so.2:_ZN5BeBoB5MixerD0Ev
libffado.so.2:_ZN5BeBoB5MixerD1Ev
libffado.so.2:_ZN5BeBoB5MixerD2Ev
libffado.so.2:_ZN5BeBoB6Device10buildMixerEv
libffado.so.2:_ZN5BeBoB6Device10createPlugEPN3AVC4UnitEPNS1_7SubunitEhhNS1_4Plug16EPlugAddressTypeENS6_14EPlugDirectionEhi
libffado.so.2:_ZN5BeBoB6Device10showDeviceEv
libffado.so.2:_ZN5BeBoB6Device11deserializeENSt7__cxx1112basic_stringIcSt11char_traitsIcESaIcEEERN4Util13IODeserializeE
libffado.so.2:_ZN5BeBoB6Device12createDeviceER13DeviceManagerSt10shared_ptrI9ConfigRomE
libffado.so.2:_ZN5BeBoB6Device12destroyMixerEv
libffado.so.2:_ZN5BeBoB6Device12getCachePathB5cxx11Ev
libffado.so.2:_ZN5BeBoB6Device13createSubunitERN3AVC4UnitENS1_12ESubunitTypeEh
libffado.so.2:_ZN5BeBoB6Device13loadFromCacheEv
libffado.so.2:_ZN5BeBoB6Device15setVerboseLevelEi
libffado.so.2:_ZN5BeBoB6Device16needsRediscoveryEv
libffado.so.2:_ZN5BeBoB6Device17propagatePlugInfoEv
libffado.so.2:_ZN5BeBoB6Device18getConfigurationIdEv
libffado.so.2:_ZN5BeBoB6Device18getSelectorFBValueEi
libffado.so.2:_ZN5BeBoB6Device18setSelectorFBValueEii
libffado.so.2:_ZN5BeBoB6Device23getFeatureFBVolumeValueEiiN3AVC16FunctionBlockCmd17EControlAttributeE
libffado.so.2:_ZN5BeBoB6Device25getFeatureFBVolumeCurrentEii
libffado.so.2:_ZN5BeBoB6Device25getFeatureFBVolumeMaximumEii
libffado.so.2:_ZN5BeBoB6Device25getFeatureFBVolumeMinimumEii
libffado.so.2:_ZN5BeBoB6Device25setFeatureFBVolumeCurrentEiii
libffado.so.2:_ZN5BeBoB6Device26getConfigurationIdSyncModeEv
libffado.so.2:_ZN5BeBoB6Device26getFeatureFBLRBalanceValueEiiN3AVC16FunctionBlockCmd17EControlAttributeE
libffado.so.2:_ZN5BeBoB6Device28getConfigurationIdSampleRateEv
libffado.so.2:_ZN5BeBoB6Device28getFeatureFBLRBalanceCurrentEii
libffado.so.2:_ZN5BeBoB6Device28getFeatureFBLRBalanceMaximumEii
libffado.so.2:_ZN5BeBoB6Device28getFeatureFBLRBalanceMinimumEii
libffado.so.2:_ZN5BeBoB6Device28setFeatureFBLRBalanceCurrentEiii
libffado.so.2:_ZN5BeBoB6Device33getConfigurationIdNumberOfChannelEN3AVC11PlugAddress14EPlugDirectionE
libffado.so.2:_ZN5BeBoB6Device33getProcessingFBMixerSingleCurrentEiiii
libffado.so.2:_ZN5BeBoB6Device33setProcessingFBMixerSingleCurrentEiiiii
libffado.so.2:_ZN5BeBoB6Device5probeERN4Util13ConfigurationER9ConfigRomb
libffado.so.2:_ZN5BeBoB6Device8discoverEv
libffado.so.2:_ZN5BeBoB6Device9saveCacheEv
libffado.so.2:_ZN5BeBoB6DeviceC1ER13DeviceManagerSt10shared_ptrI9ConfigRomE
libffado.so.2:_ZN5BeBoB6DeviceC2ER13DeviceManagerSt10shared_ptrI9ConfigRomE
libffado.so.2:_ZN5BeBoB6DeviceD0Ev
libffado.so.2:_ZN5BeBoB6DeviceD1Ev
libffado.so.2:_ZN5BeBoB6DeviceD2Ev
libffado.so.2:_ZN5BeBoB6Edirol16EdirolFa66Device10showDeviceEv
libffado.so.2:_ZN5BeBoB6Edirol16EdirolFa66Device20getActiveClockSourceEv
libffado.so.2:_ZN5BeBoB6Edirol16EdirolFa66Device20setActiveClockSourceEN11FFADODevice11ClockSourceE
libffado.so.2:_ZN5BeBoB6Edirol16EdirolFa66Device24getSupportedClockSourcesEv
libffado.so.2:_ZN5BeBoB6Edirol16EdirolFa66DeviceC1ER13DeviceManagerSt10shared_ptrI9ConfigRomE
libffado.so.2:_ZN5BeBoB6Edirol16EdirolFa66DeviceC2ER13DeviceManagerSt10shared_ptrI9ConfigRomE
libffado.so.2:_ZN5BeBoB6Edirol16EdirolFa66DeviceD0Ev
libffado.so.2:_ZN5BeBoB6Edirol16EdirolFa66DeviceD1Ev
libffado.so.2:_ZN5BeBoB6Edirol16EdirolFa66DeviceD2Ev
libffado.so.2:_ZN5BeBoB6Edirol17EdirolFa101Device10showDeviceEv
libffado.so.2:_ZN5BeBoB6Edirol17EdirolFa101Device20getActiveClockSourceEv
libffado.so.2:_ZN5BeBoB6Edirol17EdirolFa101Device20setActiveClockSourceEN11FFADODevice11ClockSourceE
libffado.so.2:_ZN5BeBoB6Edirol17EdirolFa101Device24getSupportedClockSourcesEv
libffado.so.2:_ZN5BeBoB6Edirol17EdirolFa101DeviceC1ER13DeviceManagerSt10shared_ptrI9ConfigRomE
libffado.so.2:_ZN5BeBoB6Edirol17EdirolFa101DeviceC2ER13DeviceManagerSt10shared_ptrI9ConfigRomE
libffado.so.2:_ZN5BeBoB6Edirol17EdirolFa101DeviceD0Ev
libffado.so.2:_ZN5BeBoB6Edirol17EdirolFa101DeviceD1Ev
libffado.so.2:_ZN5BeBoB6Edirol17EdirolFa101DeviceD2Ev
libffado.so.2:_ZN5BeBoB6MAudio6Normal6Device10showDeviceEv
libffado.so.2:_ZN5BeBoB6MAudio6Normal6Device12updateClkSrcEv
libffado.so.2:_ZN5BeBoB6MAudio6Normal6Device20getActiveClockSourceEv
libffado.so.2:_ZN5BeBoB6MAudio6Normal6Device20setActiveClockSourceEN11FFADODevice11ClockSourceE
libffado.so.2:_ZN5BeBoB6MAudio6Normal6Device24getSupportedClockSourcesEv
libffado.so.2:_ZN5BeBoB6MAudio6Normal6Device9getClkSrcEv
libffado.so.2:_ZN5BeBoB6MAudio6Normal6DeviceC1ER13DeviceManagerSt10shared_ptrI9ConfigRomEj
libffado.so.2:_ZN5BeBoB6MAudio6Normal6DeviceC2ER13DeviceManagerSt10shared_ptrI9ConfigRomEj
libffado.so.2:_ZN5BeBoB6MAudio6Normal6DeviceD0Ev
libffado.so.2:_ZN5BeBoB6MAudio6Normal6DeviceD1Ev
libffado.so.2:_ZN5BeBoB6MAudio6Normal6DeviceD2Ev
libffado.so.2:_ZN5BeBoB6MAudio7Special10Processing8getValueEi
libffado.so.2:_ZN5BeBoB6MAudio7Special10Processing8setValueEid
libffado.so.2:_ZN5BeBoB6MAudio7Special10Processing9getOffsetEi
libffado.so.2:_ZN5BeBoB6MAudio7Special10ProcessingC1ERNS1_6DeviceEj
libffado.so.2:_ZN5BeBoB6MAudio7Special10ProcessingC2ERNS1_6DeviceEj
libffado.so.2:_ZN5BeBoB6MAudio7Special5Mixer10initializeERNS1_6DeviceE
libffado.so.2:_ZN5BeBoB6MAudio7Special5MixerC1ERNS1_6DeviceE
libffado.so.2:_ZN5BeBoB6MAudio7Special5MixerC2ERNS1_6DeviceE
libffado.so.2:_ZN5BeBoB6MAudio7Special6Device10buildMixerEv
libffado.so.2:_ZN5BeBoB6MAudio7Special6Device10showDeviceEv
libffado.so.2:_ZN5BeBoB6MAudio7Special6Device12destroyMixerEv
libffado.so.2:_ZN5BeBoB6MAudio7Special6Device13loadFromCacheEv
libffado.so.2:_ZN5BeBoB6MAudio7Special6Device17getStreamingStateEv
libffado.so.2:_ZN5BeBoB6MAudio7Special6Device18updateClockSourcesEv
libffado.so.2:_ZN5BeBoB6MAudio7Special6Device20getActiveClockSourceEv
libffado.so.2:_ZN5BeBoB6MAudio7Special6Device20getSamplingFrequencyEv
libffado.so.2:_ZN5BeBoB6MAudio7Special6Device20setActiveClockSourceEN11FFADODevice11ClockSourceE
libffado.so.2:_ZN5BeBoB6MAudio7Special6Device24getSupportedClockSourcesEv
libffado.so.2:_ZN5BeBoB6MAudio7Special6Device25supportsSamplingFrequencyEi
libffado.so.2:_ZN5BeBoB6MAudio7Special6Device26getConfigurationIdSyncModeEv
libffado.so.2:_ZN5BeBoB6MAudio7Special6Device28getConfigurationIdSampleRateEv
libffado.so.2:_ZN5BeBoB6MAudio7Special6Device31getSupportedSamplingFrequenciesEv
libffado.so.2:_ZN5BeBoB6MAudio7Special6Device33getConfigurationIdNumberOfChannelEN3AVC11PlugAddress14EPlugDirectionE
libffado.so.2:_ZN5BeBoB6MAudio7Special6Device4lockEv
libffado.so.2:_ZN5BeBoB6MAudio7Special6Device6UnlockEv
libffado.so.2:_ZN5BeBoB6MAudio7Special6Device7readRegEmPj
libffado.so.2:_ZN5BeBoB6MAudio7Special6Device8discoverEv
libffado.so.2:_ZN5BeBoB6MAudio7Special6Device8writeBlkEmjPj
libffado.so.2:_ZN5BeBoB6MAudio7Special6Device8writeRegEmj
libffado.so.2:_ZN5BeBoB6MAudio7Special6Device9saveCacheEv
libffado.so.2:_ZN5BeBoB6MAudio7Special6DeviceC1ER13DeviceManagerSt10shared_ptrI9ConfigRomE
libffado.so.2:_ZN5BeBoB6MAudio7Special6DeviceC2ER13DeviceManagerSt10shared_ptrI9ConfigRomE
libffado.so.2:_ZN5BeBoB6MAudio7Special6Volume8getValueEi
libffado.so.2:_ZN5BeBoB6MAudio7Special6Volume8setValueEid
libffado.so.2:_ZN5BeBoB6MAudio7Special6Volume9getOffsetEv
libffado.so.2:_ZN5BeBoB6MAudio7Special6VolumeC1ERNS1_6DeviceEj
libffado.so.2:_ZN5BeBoB6MAudio7Special6VolumeC2ERNS1_6DeviceEj
libffado.so.2:_ZN5BeBoB6MAudio7Special8Selector8getValueEi
libffado.so.2:_ZN5BeBoB6MAudio7Special8Selector8setValueEii
libffado.so.2:_ZN5BeBoB6MAudio7Special8Selector9getOffsetEv
libffado.so.2:_ZN5BeBoB6MAudio7Special8SelectorC1ERNS1_6DeviceEj
libffado.so.2:_ZN5BeBoB6MAudio7Special8SelectorC2ERNS1_6DeviceEj
libffado.so.2:_ZN5BeBoB6MAudio7Special9LRBalance8getValueEi
libffado.so.2:_ZN5BeBoB6MAudio7Special9LRBalance8setValueEid
libffado.so.2:_ZN5BeBoB6MAudio7Special9LRBalance9getOffsetEv
libffado.so.2:_ZN5BeBoB6MAudio7Special9LRBalanceC1ERNS1_6DeviceEj
libffado.so.2:_ZN5BeBoB6MAudio7Special9LRBalanceC2ERNS1_6DeviceEj
libffado.so.2:_ZN5BeBoB6Mackie15OnyxMixerDevice10showDeviceEv
libffado.so.2:_ZN5BeBoB6Mackie15OnyxMixerDevice20getActiveClockSourceEv
libffado.so.2:_ZN5BeBoB6Mackie15OnyxMixerDevice20setActiveClockSourceEN11FFADODevice11ClockSourceE
libffado.so.2:_ZN5BeBoB6Mackie15OnyxMixerDevice24getSupportedClockSourcesEv
libffado.so.2:_ZN5BeBoB6Mackie15OnyxMixerDeviceC1ER13DeviceManagerSt10shared_ptrI9ConfigRomE
libffado.so.2:_ZN5BeBoB6Mackie15OnyxMixerDeviceC2ER13DeviceManagerSt10shared_ptrI9ConfigRomE
libffado.so.2:_ZN5BeBoB6Mackie15OnyxMixerDeviceD0Ev
libffado.so.2:_ZN5BeBoB6Mackie15OnyxMixerDeviceD1Ev
libffado.so.2:_ZN5BeBoB6Mackie15OnyxMixerDeviceD2Ev
libffado.so.2:_ZN5BeBoB6Yamaha18YamahaSyncStateCmd11deserializeERN4Util3Cmd14IISDeserializeE
libffado.so.2:_ZN5BeBoB6Yamaha18YamahaSyncStateCmd9serializeERN4Util3Cmd12IOSSerializeE
libffado.so.2:_ZN5BeBoB6Yamaha18YamahaSyncStateCmdC1ER15Ieee1394Service
libffado.so.2:_ZN5BeBoB6Yamaha18YamahaSyncStateCmdC2ER15Ieee1394Service
libffado.so.2:_ZN5BeBoB6Yamaha20YamahaDigInDetectCmd11deserializeERN4Util3Cmd14IISDeserializeE
libffado.so.2:_ZN5BeBoB6Yamaha20YamahaDigInDetectCmd9serializeERN4Util3Cmd12IOSSerializeE
libffado.so.2:_ZN5BeBoB6Yamaha20YamahaDigInDetectCmdC1ER15Ieee1394Service
libffado.so.2:_ZN5BeBoB6Yamaha20YamahaDigInDetectCmdC2ER15Ieee1394Service
libffado.so.2:_ZN5BeBoB6Yamaha24YamahaVendorDependentCmd11deserializeERN4Util3Cmd14IISDeserializeE
libffado.so.2:_ZN5BeBoB6Yamaha24YamahaVendorDependentCmd9serializeERN4Util3Cmd12IOSSerializeE
libffado.so.2:_ZN5BeBoB6Yamaha24YamahaVendorDependentCmdC1ER15Ieee1394Service
libffado.so.2:_ZN5BeBoB6Yamaha24YamahaVendorDependentCmdC2ER15Ieee1394Service
libffado.so.2:_ZN5BeBoB6Yamaha8GoDevice10showDeviceEv
libffado.so.2:_ZN5BeBoB6Yamaha8GoDevice18updateClockSourcesEv
libffado.so.2:_ZN5BeBoB6Yamaha8GoDevice20getActiveClockSourceEv
libffado.so.2:_ZN5BeBoB6Yamaha8GoDevice20setActiveClockSourceEN11FFADODevice11ClockSourceE
libffado.so.2:_ZN5BeBoB6Yamaha8GoDevice24getSupportedClockSourcesEv
libffado.so.2:_ZN5BeBoB6Yamaha8GoDeviceC1ER13DeviceManagerSt10shared_ptrI9ConfigRomE
libffado.so.2:_ZN5BeBoB6Yamaha8GoDeviceC2ER13DeviceManagerSt10shared_ptrI9ConfigRomE
libffado.so.2:_ZN5BeBoB6Yamaha8GoDeviceD0Ev
libffado.so.2:_ZN5BeBoB6Yamaha8GoDeviceD1Ev
libffado.so.2:_ZN5BeBoB6Yamaha8GoDeviceD2Ev
libffado.so.2:_ZN5BeBoB8Presonus11Inspire139413BinaryControl8getValueEi
libffado.so.2:_ZN5BeBoB8Presonus11Inspire139413BinaryControl8setValueEii
libffado.so.2:_ZN5BeBoB8Presonus11Inspire139413BinaryControlC1ERNS1_6DeviceENS1_11ECmdSubfuncENSt7__cxx1112basic_stringIcSt11char_traitsIcESaIcEEESB_SB_
libffado.so.2:_ZN5BeBoB8Presonus11Inspire139413BinaryControlC2ERNS1_6DeviceENS1_11ECmdSubfuncENSt7__cxx1112basic_stringIcSt11char_traitsIcESaIcEEESB_SB_
libffado.so.2:_ZN5BeBoB8Presonus11Inspire13946Device10showDeviceEv
libffado.so.2:_ZN5BeBoB8Presonus11Inspire13946Device16getSpecificValueENS1_11ECmdSubfuncEiPh
libffado.so.2:_ZN5BeBoB8Presonus11Inspire13946Device16setSpecificValueENS1_11ECmdSubfuncEih
libffado.so.2:_ZN5BeBoB8Presonus11Inspire13946Device19addSpecificControlsEv
libffado.so.2:_ZN5BeBoB8Presonus11Inspire13946DeviceC1ER13DeviceManagerSt10shared_ptrI9ConfigRomE
libffado.so.2:_ZN5BeBoB8Presonus11Inspire13946DeviceC2ER13DeviceManagerSt10shared_ptrI9ConfigRomE
libffado.so.2:_ZN5BeBoB8Presonus11Inspire13946DeviceD0Ev
libffado.so.2:_ZN5BeBoB8Presonus11Inspire13946DeviceD1Ev
libffado.so.2:_ZN5BeBoB8Presonus11Inspire13946DeviceD2Ev
libffado.so.2:_ZN5BeBoB8Presonus11Inspire13947Command11deserializeERN4Util3Cmd14IISDeserializeE
libffado.so.2:_ZN5BeBoB8Presonus11Inspire13947Command9serializeERN4Util3Cmd12IOSSerializeE
libffado.so.2:_ZN5BeBoB8Presonus11Inspire13947CommandC1ER15Ieee1394Service
libffado.so.2:_ZN5BeBoB8Presonus11Inspire13947CommandC2ER15Ieee1394Service
libffado.so.2:_ZN5BeBoB8Presonus7Firebox6Device10showDeviceEv
libffado.so.2:_ZN5BeBoB8Presonus7Firebox6Device20getActiveClockSourceEv
libffado.so.2:_ZN5BeBoB8Presonus7Firebox6Device20setActiveClockSourceEN11FFADODevice11ClockSourceE
libffado.so.2:_ZN5BeBoB8Presonus7Firebox6Device24getSupportedClockSourcesEv
libffado.so.2:_ZN5BeBoB8Presonus7Firebox6Device9getClkSrcEv
libffado.so.2:_ZN5BeBoB8Presonus7Firebox6DeviceC1ER13DeviceManagerSt10shared_ptrI9ConfigRomE
libffado.so.2:_ZN5BeBoB8Presonus7Firebox6DeviceC2ER13DeviceManagerSt10shared_ptrI9ConfigRomE
libffado.so.2:_ZN5BeBoB8Presonus7Firebox6DeviceD0Ev
libffado.so.2:_ZN5BeBoB8Presonus7Firebox6DeviceD1Ev
libffado.so.2:_ZN5BeBoB8Presonus7Firebox6DeviceD2Ev
libffado.so.2:_ZN5BeBoB8Terratec13Phase88Device10showDeviceEv
libffado.so.2:_ZN5BeBoB8Terratec13Phase88Device18updateClockSourcesEv
libffado.so.2:_ZN5BeBoB8Terratec13Phase88Device20getActiveClockSourceEv
libffado.so.2:_ZN5BeBoB8Terratec13Phase88Device20setActiveClockSourceEN11FFADODevice11ClockSourceE
libffado.so.2:_ZN5BeBoB8Terratec13Phase88Device24getSupportedClockSourcesEv
libffado.so.2:_ZN5BeBoB8Terratec13Phase88Device26getConfigurationIdSyncModeEv
libffado.so.2:_ZN5BeBoB8Terratec13Phase88Device8discoverEv
libffado.so.2:_ZN5BeBoB8Terratec13Phase88DeviceC1ER13DeviceManagerSt10shared_ptrI9ConfigRomE
libffado.so.2:_ZN5BeBoB8Terratec13Phase88DeviceC2ER13DeviceManagerSt10shared_ptrI9ConfigRomE
libffado.so.2:_ZN5BeBoB8Terratec13Phase88DeviceD0Ev
libffado.so.2:_ZN5BeBoB8Terratec13Phase88DeviceD1Ev
libffado.so.2:_ZN5BeBoB8Terratec13Phase88DeviceD2Ev
libffado.so.2:_ZN5BeBoB8Terratec19TerratecDeviceIdCmd11deserializeERN4Util3Cmd14IISDeserializeE
libffado.so.2:_ZN5BeBoB8Terratec19TerratecDeviceIdCmd9serializeERN4Util3Cmd12IOSSerializeE
libffado.so.2:_ZN5BeBoB8Terratec19TerratecDeviceIdCmdC1ER15Ieee1394Service
libffado.so.2:_ZN5BeBoB8Terratec19TerratecDeviceIdCmdC2ER15Ieee1394Service
libffado.so.2:_ZN5BeBoB8Terratec20TerratecSyncStateCmd11deserializeERN4Util3Cmd14IISDeserializeE
libffado.so.2:_ZN5BeBoB8Terratec20TerratecSyncStateCmd9serializeERN4Util3Cmd12IOSSerializeE
libffado.so.2:_ZN5BeBoB8Terratec20TerratecSyncStateCmdC1ER15Ieee1394Service
libffado.so.2:_ZN5BeBoB8Terratec20TerratecSyncStateCmdC2ER15Ieee1394Service
libffado.so.2:_ZN5BeBoB8Terratec25TerratecSetMidiControlCmd11deserializeERN4Util3Cmd14IISDeserializeE
libffado.so.2:_ZN5BeBoB8Terratec25TerratecSetMidiControlCmd9serializeERN4Util3Cmd12IOSSerializeE
libffado.so.2:_ZN5BeBoB8Terratec25TerratecSetMidiControlCmdC1ER15Ieee1394Service
libffado.so.2:_ZN5BeBoB8Terratec25TerratecSetMidiControlCmdC2ER15Ieee1394Service
libffado.so.2:_ZN5BeBoB8Terratec26TerratecVendorDependentCmd11deserializeERN4Util3Cmd14IISDeserializeE
libffado.so.2:_ZN5BeBoB8Terratec26TerratecVendorDependentCmd9serializeERN4Util3Cmd12IOSSerializeE
libffado.so.2:_ZN5BeBoB8Terratec26TerratecVendorDependentCmdC1ER15Ieee1394Service
libffado.so.2:_ZN5BeBoB8Terratec26TerratecVendorDependentCmdC2ER15Ieee1394Service
libffado.so.2:_ZN5BeBoB8Terratec28TerratecSetDefaultRoutingCmd11deserializeERN4Util3Cmd14IISDeserializeE
libffado.so.2:_ZN5BeBoB8Terratec28TerratecSetDefaultRoutingCmd9serializeERN4Util3Cmd12IOSSerializeE
libffado.so.2:_ZN5BeBoB8Terratec28TerratecSetDefaultRoutingCmdC1ER15Ieee1394Service
libffado.so.2:_ZN5BeBoB8Terratec28TerratecSetDefaultRoutingCmdC2ER15Ieee1394Service
libffado.so.2:_ZN5BeBoB8Terratec29TerratecStoreMixerSettingsCmd11deserializeERN4Util3Cmd14IISDeserializeE
libffado.so.2:_ZN5BeBoB8Terratec29TerratecStoreMixerSettingsCmd9serializeERN4Util3Cmd12IOSSerializeE
libffado.so.2:_ZN5BeBoB8Terratec29TerratecStoreMixerSettingsCmdC1ER15Ieee1394Service
libffado.so.2:_ZN5BeBoB8Terratec29TerratecStoreMixerSettingsCmdC2ER15Ieee1394Service
libffado.so.2:_ZN5BeBoB8Terratec31TerratecSetMidiRemoteChannelCmd11deserializeERN4Util3Cmd14IISDeserializeE
libffado.so.2:_ZN5BeBoB8Terratec31TerratecSetMidiRemoteChannelCmd9serializeERN4Util3Cmd12IOSSerializeE
libffado.so.2:_ZN5BeBoB8Terratec31TerratecSetMidiRemoteChannelCmdC1ER15Ieee1394Service
libffado.so.2:_ZN5BeBoB8Terratec31TerratecSetMidiRemoteChannelCmdC2ER15Ieee1394Service
libffado.so.2:_ZN5BeBoB8makeDateB5cxx11Em
libffado.so.2:_ZN5BeBoB8makeTimeB5cxx11Em
libffado.so.2:_ZN5BeBoB9Focusrite13BinaryControl8getValueEv
libffado.so.2:_ZN5BeBoB9Focusrite13BinaryControl8setValueEi
libffado.so.2:_ZN5BeBoB9Focusrite13BinaryControlC1ERNS0_15FocusriteDeviceEii
libffado.so.2:_ZN5BeBoB9Focusrite13BinaryControlC1ERNS0_15FocusriteDeviceEiiNSt7__cxx1112basic_stringIcSt11char_traitsIcESaIcEEES9_S9_
libffado.so.2:_ZN5BeBoB9Focusrite13BinaryControlC2ERNS0_15FocusriteDeviceEii
libffado.so.2:_ZN5BeBoB9Focusrite13BinaryControlC2ERNS0_15FocusriteDeviceEiiNSt7__cxx1112basic_stringIcSt11char_traitsIcESaIcEEES9_S9_
libffado.so.2:_ZN5BeBoB9Focusrite13SaffireDevice10buildMixerEv
libffado.so.2:_ZN5BeBoB9Focusrite13SaffireDevice10showDeviceEv
libffado.so.2:_ZN5BeBoB9Focusrite13SaffireDevice12destroyMixerEv
libffado.so.2:_ZN5BeBoB9Focusrite13SaffireDevice15setVerboseLevelEi
libffado.so.2:_ZN5BeBoB9Focusrite13SaffireDevice31getSupportedSamplingFrequenciesEv
libffado.so.2:_ZN5BeBoB9Focusrite13SaffireDeviceC1ER13DeviceManagerSt10shared_ptrI9ConfigRomE
libffado.so.2:_ZN5BeBoB9Focusrite13SaffireDeviceC2ER13DeviceManagerSt10shared_ptrI9ConfigRomE
libffado.so.2:_ZN5BeBoB9Focusrite13VolumeControl8getValueEv
libffado.so.2:_ZN5BeBoB9Focusrite13VolumeControl8setValueEi
libffado.so.2:_ZN5BeBoB9Focusrite13VolumeControlC1ERNS0_15FocusriteDeviceEi
libffado.so.2:_ZN5BeBoB9Focusrite13VolumeControlC1ERNS0_15FocusriteDeviceEiNSt7__cxx1112basic_stringIcSt11char_traitsIcESaIcEEES9_S9_
libffado.so.2:_ZN5BeBoB9Focusrite13VolumeControlC2ERNS0_15FocusriteDeviceEi
libffado.so.2:_ZN5BeBoB9Focusrite13VolumeControlC2ERNS0_15FocusriteDeviceEiNSt7__cxx1112basic_stringIcSt11char_traitsIcESaIcEEES9_S9_
libffado.so.2:_ZN5BeBoB9Focusrite15FocusriteDevice10showDeviceEv
libffado.so.2:_ZN5BeBoB9Focusrite15FocusriteDevice14convertDefToSrEj
libffado.so.2:_ZN5BeBoB9Focusrite15FocusriteDevice14convertSrToDefEi
libffado.so.2:_ZN5BeBoB9Focusrite15FocusriteDevice15setVerboseLevelEi
libffado.so.2:_ZN5BeBoB9Focusrite15FocusriteDevice16getSpecificValueEjPj
libffado.so.2:_ZN5BeBoB9Focusrite15FocusriteDevice16setSpecificValueEjj
libffado.so.2:_ZN5BeBoB9Focusrite15FocusriteDevice19getSpecificValueARMEjPj
libffado.so.2:_ZN5BeBoB9Focusrite15FocusriteDevice19getSpecificValueAvcEjPj
libffado.so.2:_ZN5BeBoB9Focusrite15FocusriteDevice19setSpecificValueARMEjj
libffado.so.2:_ZN5BeBoB9Focusrite15FocusriteDevice19setSpecificValueAvcEjj
libffado.so.2:_ZN5BeBoB9Focusrite15FocusriteDeviceC1ER13DeviceManagerSt10shared_ptrI9ConfigRomE
libffado.so.2:_ZN5BeBoB9Focusrite15FocusriteDeviceC2ER13DeviceManagerSt10shared_ptrI9ConfigRomE
libffado.so.2:_ZN5BeBoB9Focusrite15MeteringControl8getValueEv
libffado.so.2:_ZN5BeBoB9Focusrite15MeteringControlC1ERNS0_15FocusriteDeviceEi
libffado.so.2:_ZN5BeBoB9Focusrite15MeteringControlC1ERNS0_15FocusriteDeviceEiNSt7__cxx1112basic_stringIcSt11char_traitsIcESaIcEEES9_S9_
libffado.so.2:_ZN5BeBoB9Focusrite15MeteringControlC2ERNS0_15FocusriteDeviceEi
libffado.so.2:_ZN5BeBoB9Focusrite15MeteringControlC2ERNS0_15FocusriteDeviceEiNSt7__cxx1112basic_stringIcSt11char_traitsIcESaIcEEES9_S9_
libffado.so.2:_ZN5BeBoB9Focusrite15RegisterControl8getValueEm
libffado.so.2:_ZN5BeBoB9Focusrite15RegisterControl8setValueEmm
libffado.so.2:_ZN5BeBoB9Focusrite15RegisterControlC1ERNS0_15FocusriteDeviceE
libffado.so.2:_ZN5BeBoB9Focusrite15RegisterControlC1ERNS0_15FocusriteDeviceENSt7__cxx1112basic_stringIcSt11char_traitsIcESaIcEEES9_S9_
libffado.so.2:_ZN5BeBoB9Focusrite15RegisterControlC2ERNS0_15FocusriteDeviceE
libffado.so.2:_ZN5BeBoB9Focusrite15RegisterControlC2ERNS0_15FocusriteDeviceENSt7__cxx1112basic_stringIcSt11char_traitsIcESaIcEEES9_S9_
libffado.so.2:_ZN5BeBoB9Focusrite16SaffireProDevice10buildMixerEv
libffado.so.2:_ZN5BeBoB9Focusrite16SaffireProDevice10getCount32Ev
libffado.so.2:_ZN5BeBoB9Focusrite16SaffireProDevice10showDeviceEv
libffado.so.2:_ZN5BeBoB9Focusrite16SaffireProDevice11getNicknameB5cxx11Ev
libffado.so.2:_ZN5BeBoB9Focusrite16SaffireProDevice11setNicknameENSt7__cxx1112basic_stringIcSt11char_traitsIcESaIcEEE
libffado.so.2:_ZN5BeBoB9Focusrite16SaffireProDevice12destroyMixerEv
libffado.so.2:_ZN5BeBoB9Focusrite16SaffireProDevice12rebootDeviceEv
libffado.so.2:_ZN5BeBoB9Focusrite16SaffireProDevice12saveSettingsEv
libffado.so.2:_ZN5BeBoB9Focusrite16SaffireProDevice13getDeviceNameB5cxx11Ev
libffado.so.2:_ZN5BeBoB9Focusrite16SaffireProDevice13isMidiEnabledEv
libffado.so.2:_ZN5BeBoB9Focusrite16SaffireProDevice13setDeviceNameENSt7__cxx1112basic_stringIcSt11char_traitsIcESaIcEEE
libffado.so.2:_ZN5BeBoB9Focusrite16SaffireProDevice14exitStandaloneEv
libffado.so.2:_ZN5BeBoB9Focusrite16SaffireProDevice15getPllLockRangeEv
libffado.so.2:_ZN5BeBoB9Focusrite16SaffireProDevice15setPllLockRangeEj
libffado.so.2:_ZN5BeBoB9Focusrite16SaffireProDevice15setVerboseLevelEi
libffado.so.2:_ZN5BeBoB9Focusrite16SaffireProDevice16isExtClockLockedEv
libffado.so.2:_ZN5BeBoB9Focusrite16SaffireProDevice17canChangeNicknameEv
libffado.so.2:_ZN5BeBoB9Focusrite16SaffireProDevice18getConfigurationIdEv
libffado.so.2:_ZN5BeBoB9Focusrite16SaffireProDevice18updateClockSourcesEv
libffado.so.2:_ZN5BeBoB9Focusrite16SaffireProDevice18useHighVoltageRailEb
libffado.so.2:_ZN5BeBoB9Focusrite16SaffireProDevice20getActiveClockSourceEv
libffado.so.2:_ZN5BeBoB9Focusrite16SaffireProDevice20getSamplingFrequencyEv
libffado.so.2:_ZN5BeBoB9Focusrite16SaffireProDevice20setActiveClockSourceEN11FFADODevice11ClockSourceE
libffado.so.2:_ZN5BeBoB9Focusrite16SaffireProDevice20setSamplingFrequencyEi
libffado.so.2:_ZN5BeBoB9Focusrite16SaffireProDevice20usingHighVoltageRailEv
libffado.so.2:_ZN5BeBoB9Focusrite16SaffireProDevice22setSamplingFrequencyDoEj
libffado.so.2:_ZN5BeBoB9Focusrite16SaffireProDevice23getEnableDigitalChannelENS1_15eDigitalChannelE
libffado.so.2:_ZN5BeBoB9Focusrite16SaffireProDevice23setEnableDigitalChannelENS1_15eDigitalChannelEj
libffado.so.2:_ZN5BeBoB9Focusrite16SaffireProDevice24getSupportedClockSourcesEv
libffado.so.2:_ZN5BeBoB9Focusrite16SaffireProDevice26getConfigurationIdSyncModeEv
libffado.so.2:_ZN5BeBoB9Focusrite16SaffireProDevice30setSamplingFrequencyDoNoRebootEj
libffado.so.2:_ZN5BeBoB9Focusrite16SaffireProDevice31getSupportedSamplingFrequenciesEv
libffado.so.2:_ZN5BeBoB9Focusrite16SaffireProDevice8flashLedEv
libffado.so.2:_ZN5BeBoB9Focusrite16SaffireProDevice9isAudioOnEv
libffado.so.2:_ZN5BeBoB9Focusrite16SaffireProDeviceC1ER13DeviceManagerSt10shared_ptrI9ConfigRomE
libffado.so.2:_ZN5BeBoB9Focusrite16SaffireProDeviceC2ER13DeviceManagerSt10shared_ptrI9ConfigRomE
libffado.so.2:_ZN5BeBoB9Focusrite16SaffireProDeviceD0Ev
libffado.so.2:_ZN5BeBoB9Focusrite16SaffireProDeviceD1Ev
libffado.so.2:_ZN5BeBoB9Focusrite16SaffireProDeviceD2Ev
libffado.so.2:_ZN5BeBoB9Focusrite18SaffireMatrixMixer4initEv
libffado.so.2:_ZN5BeBoB9Focusrite18SaffireMatrixMixer4showEv
libffado.so.2:_ZN5BeBoB9Focusrite18SaffireMatrixMixerC1ERNS0_13SaffireDeviceENS1_16eMatrixMixerTypeE
libffado.so.2:_ZN5BeBoB9Focusrite18SaffireMatrixMixerC1ERNS0_13SaffireDeviceENS1_16eMatrixMixerTypeENSt7__cxx1112basic_stringIcSt11char_traitsIcESaIcEEE
libffado.so.2:_ZN5BeBoB9Focusrite18SaffireMatrixMixerC2ERNS0_13SaffireDeviceENS1_16eMatrixMixerTypeE
libffado.so.2:_ZN5BeBoB9Focusrite18SaffireMatrixMixerC2ERNS0_13SaffireDeviceENS1_16eMatrixMixerTypeENSt7__cxx1112basic_stringIcSt11char_traitsIcESaIcEEE
libffado.so.2:_ZN5BeBoB9Focusrite19DialPositionControl8getValueEv
libffado.so.2:_ZN5BeBoB9Focusrite19DialPositionControlC1ERNS0_15FocusriteDeviceEii
libffado.so.2:_ZN5BeBoB9Focusrite19DialPositionControlC1ERNS0_15FocusriteDeviceEiiNSt7__cxx1112basic_stringIcSt11char_traitsIcESaIcEEES9_S9_
libffado.so.2:_ZN5BeBoB9Focusrite19DialPositionControlC2ERNS0_15FocusriteDeviceEii
libffado.so.2:_ZN5BeBoB9Focusrite19DialPositionControlC2ERNS0_15FocusriteDeviceEiiNSt7__cxx1112basic_stringIcSt11char_traitsIcESaIcEEES9_S9_
libffado.so.2:_ZN5BeBoB9Focusrite19VolumeControlLowRes8getValueEv
libffado.so.2:_ZN5BeBoB9Focusrite19VolumeControlLowRes8setValueEi
libffado.so.2:_ZN5BeBoB9Focusrite19VolumeControlLowResC1ERNS0_15FocusriteDeviceEii
libffado.so.2:_ZN5BeBoB9Focusrite19VolumeControlLowResC1ERNS0_15FocusriteDeviceEiiNSt7__cxx1112basic_stringIcSt11char_traitsIcESaIcEEES9_S9_
libffado.so.2:_ZN5BeBoB9Focusrite19VolumeControlLowResC2ERNS0_15FocusriteDeviceEii
libffado.so.2:_ZN5BeBoB9Focusrite19VolumeControlLowResC2ERNS0_15FocusriteDeviceEiiNSt7__cxx1112basic_stringIcSt11char_traitsIcESaIcEEES9_S9_
libffado.so.2:_ZN5BeBoB9Focusrite20FocusriteMatrixMixer10getColNameB5cxx11Ei
libffado.so.2:_ZN5BeBoB9Focusrite20FocusriteMatrixMixer10getRowNameB5cxx11Ei
libffado.so.2:_ZN5BeBoB9Focusrite20FocusriteMatrixMixer11getColCountEv
libffado.so.2:_ZN5BeBoB9Focusrite20FocusriteMatrixMixer11getRowCountEv
libffado.so.2:_ZN5BeBoB9Focusrite20FocusriteMatrixMixer11setCellInfoEiiib
libffado.so.2:_ZN5BeBoB9Focusrite20FocusriteMatrixMixer13addSignalInfoERSt6vectorINS1_11sSignalInfoESaIS3_EENSt7__cxx1112basic_stringIcSt11char_traitsIcESaIcEEESC_SC_
libffado.so.2:_ZN5BeBoB9Focusrite20FocusriteMatrixMixer4showEv
libffado.so.2:_ZN5BeBoB9Focusrite20FocusriteMatrixMixer8canWriteEii
libffado.so.2:_ZN5BeBoB9Focusrite20FocusriteMatrixMixer8getValueEii
libffado.so.2:_ZN5BeBoB9Focusrite20FocusriteMatrixMixer8setValueEiid
libffado.so.2:_ZN5BeBoB9Focusrite20FocusriteMatrixMixerC1ERNS0_15FocusriteDeviceE
libffado.so.2:_ZN5BeBoB9Focusrite20FocusriteMatrixMixerC1ERNS0_15FocusriteDeviceENSt7__cxx1112basic_stringIcSt11char_traitsIcESaIcEEE
libffado.so.2:_ZN5BeBoB9Focusrite20FocusriteMatrixMixerC2ERNS0_15FocusriteDeviceE
libffado.so.2:_ZN5BeBoB9Focusrite20FocusriteMatrixMixerC2ERNS0_15FocusriteDeviceENSt7__cxx1112basic_stringIcSt11char_traitsIcESaIcEEE
libffado.so.2:_ZN5BeBoB9Focusrite21SaffireProMatrixMixer4initEv
libffado.so.2:_ZN5BeBoB9Focusrite21SaffireProMatrixMixer4showEv
libffado.so.2:_ZN5BeBoB9Focusrite21SaffireProMatrixMixerC1ERNS0_16SaffireProDeviceENS1_16eMatrixMixerTypeE
libffado.so.2:_ZN5BeBoB9Focusrite21SaffireProMatrixMixerC1ERNS0_16SaffireProDeviceENS1_16eMatrixMixerTypeENSt7__cxx1112basic_stringIcSt11char_traitsIcESaIcEEE
libffado.so.2:_ZN5BeBoB9Focusrite21SaffireProMatrixMixerC2ERNS0_16SaffireProDeviceENS1_16eMatrixMixerTypeE
libffado.so.2:_ZN5BeBoB9Focusrite21SaffireProMatrixMixerC2ERNS0_16SaffireProDeviceENS1_16eMatrixMixerTypeENSt7__cxx1112basic_stringIcSt11char_traitsIcESaIcEEE
libffado.so.2:_ZN5BeBoB9Focusrite22SaffireProMultiControl8getValueEv
libffado.so.2:_ZN5BeBoB9Focusrite22SaffireProMultiControl8setValueEi
libffado.so.2:_ZN5BeBoB9Focusrite22SaffireProMultiControlC1ERNS0_16SaffireProDeviceENS1_17eMultiControlTypeE
libffado.so.2:_ZN5BeBoB9Focusrite22SaffireProMultiControlC1ERNS0_16SaffireProDeviceENS1_17eMultiControlTypeENSt7__cxx1112basic_stringIcSt11char_traitsIcESaIcEEESA_SA_
libffado.so.2:_ZN5BeBoB9Focusrite22SaffireProMultiControlC2ERNS0_16SaffireProDeviceENS1_17eMultiControlTypeE
libffado.so.2:_ZN5BeBoB9Focusrite22SaffireProMultiControlC2ERNS0_16SaffireProDeviceENS1_17eMultiControlTypeENSt7__cxx1112basic_stringIcSt11char_traitsIcESaIcEEESA_SA_
libffado.so.2:_ZN5BeBoB9Focusrite27FocusriteVendorDependentCmd11deserializeERN4Util3Cmd14IISDeserializeE
libffado.so.2:_ZN5BeBoB9Focusrite27FocusriteVendorDependentCmd9serializeERN4Util3Cmd12IOSSerializeE
libffado.so.2:_ZN5BeBoB9Focusrite27FocusriteVendorDependentCmdC1ER15Ieee1394Service
libffado.so.2:_ZN5BeBoB9Focusrite27FocusriteVendorDependentCmdC2ER15Ieee1394Service
libffado.so.2:_ZN5BeBoB9Focusrite27FocusriteVendorDependentCmdD0Ev
libffado.so.2:_ZN5BeBoB9Focusrite27FocusriteVendorDependentCmdD1Ev
libffado.so.2:_ZN5BeBoB9Focusrite27FocusriteVendorDependentCmdD2Ev
libffado.so.2:_ZN5BeBoB9Focusrite27SaffireProDeviceNameControl8getValueB5cxx11Ev
libffado.so.2:_ZN5BeBoB9Focusrite27SaffireProDeviceNameControl8setValueENSt7__cxx1112basic_stringIcSt11char_traitsIcESaIcEEE
libffado.so.2:_ZN5BeBoB9Focusrite27SaffireProDeviceNameControlC1ERNS0_16SaffireProDeviceE
libffado.so.2:_ZN5BeBoB9Focusrite27SaffireProDeviceNameControlC1ERNS0_16SaffireProDeviceENSt7__cxx1112basic_stringIcSt11char_traitsIcESaIcEEES9_S9_
libffado.so.2:_ZN5BeBoB9Focusrite27SaffireProDeviceNameControlC2ERNS0_16SaffireProDeviceE
libffado.so.2:_ZN5BeBoB9Focusrite27SaffireProDeviceNameControlC2ERNS0_16SaffireProDeviceENSt7__cxx1112basic_stringIcSt11char_traitsIcESaIcEEES9_S9_
libffado.so.2:_ZN5BeBoB9Focusrite30SaffireProDeviceStandaloneEnum12getEnumLabelB5cxx11Ei
libffado.so.2:_ZN5BeBoB9Focusrite30SaffireProDeviceStandaloneEnum5countEv
libffado.so.2:_ZN5BeBoB9Focusrite30SaffireProDeviceStandaloneEnum6selectEi
libffado.so.2:_ZN5BeBoB9Focusrite30SaffireProDeviceStandaloneEnum8selectedEv
libffado.so.2:_ZN5BeBoB9Focusrite30SaffireProDeviceStandaloneEnumC1ERNS0_16SaffireProDeviceE
libffado.so.2:_ZN5BeBoB9Focusrite30SaffireProDeviceStandaloneEnumC1ERNS0_16SaffireProDeviceENSt7__cxx1112basic_stringIcSt11char_traitsIcESaIcEEES9_S9_
libffado.so.2:_ZN5BeBoB9Focusrite30SaffireProDeviceStandaloneEnumC2ERNS0_16SaffireProDeviceE
libffado.so.2:_ZN5BeBoB9Focusrite30SaffireProDeviceStandaloneEnumC2ERNS0_16SaffireProDeviceENSt7__cxx1112basic_stringIcSt11char_traitsIcESaIcEEES9_S9_
libffado.so.2:_ZN6Oxford6Device10showDeviceEv
libffado.so.2:_ZN6Oxford6Device12createDeviceER13DeviceManagerSt10shared_ptrI9ConfigRomE
libffado.so.2:_ZN6Oxford6Device20getActiveClockSourceEv
libffado.so.2:_ZN6Oxford6Device20setActiveClockSourceEN11FFADODevice11ClockSourceE
libffado.so.2:_ZN6Oxford6Device24getSupportedClockSourcesEv
libffado.so.2:_ZN6Oxford6Device31getSupportedSamplingFrequenciesEv
libffado.so.2:_ZN6Oxford6Device5probeERN4Util13ConfigurationER9ConfigRomb
libffado.so.2:_ZN6Oxford6Device7prepareEv
libffado.so.2:_ZN6Oxford6Device8discoverEv
libffado.so.2:_ZN6Oxford6DeviceC1ER13DeviceManagerSt10shared_ptrI9ConfigRomE
libffado.so.2:_ZN6Oxford6DeviceC2ER13DeviceManagerSt10shared_ptrI9ConfigRomE
libffado.so.2:_ZN6Oxford6DeviceD0Ev
libffado.so.2:_ZN6Oxford6DeviceD1Ev
libffado.so.2:_ZN6Oxford6DeviceD2Ev
libffado.so.2:_ZN7Control11ClockSelect12getEnumLabelB5cxx11Ei
libffado.so.2:_ZN7Control11ClockSelect14attributeCountEv
libffado.so.2:_ZN7Control11ClockSelect14canChangeValueEv
libffado.so.2:_ZN7Control11ClockSelect16getAttributeNameB5cxx11Ei
libffado.so.2:_ZN7Control11ClockSelect17getAttributeValueB5cxx11Ei
libffado.so.2:_ZN7Control11ClockSelect4showEv
libffado.so.2:_ZN7Control11ClockSelect5countEv
libffado.so.2:_ZN7Control11ClockSelect6selectEi
libffado.so.2:_ZN7Control11ClockSelect8selectedEv
libffado.so.2:_ZN7Control11ClockSelectC1ER11FFADODevice
libffado.so.2:_ZN7Control11ClockSelectC2ER11FFADODevice
libffado.so.2:_ZN7Control11MatrixMixer10getColNameB5cxx11Ei
libffado.so.2:_ZN7Control11MatrixMixer10getRowNameB5cxx11Ei
libffado.so.2:_ZN7Control11MatrixMixer10setColNameEiRKNSt7__cxx1112basic_stringIcSt11char_traitsIcESaIcEEE
libffado.so.2:_ZN7Control11MatrixMixer10setRowNameEiRKNSt7__cxx1112basic_stringIcSt11char_traitsIcESaIcEEE
libffado.so.2:_ZN7Control11MatrixMixer12connectColToEiRKNSt7__cxx1112basic_stringIcSt11char_traitsIcESaIcEEE
libffado.so.2:_ZN7Control11MatrixMixer12connectRowToEiRKNSt7__cxx1112basic_stringIcSt11char_traitsIcESaIcEEE
libffado.so.2:_ZN7Control11MatrixMixer26availableConnectionsForColB5cxx11Ei
libffado.so.2:_ZN7Control11MatrixMixer26availableConnectionsForRowB5cxx11Ei
libffado.so.2:_ZN7Control15StreamingStatus12getEnumLabelB5cxx11Ei
libffado.so.2:_ZN7Control15StreamingStatus14canChangeValueEv
libffado.so.2:_ZN7Control15StreamingStatus4showEv
libffado.so.2:_ZN7Control15StreamingStatus5countEv
libffado.so.2:_ZN7Control15StreamingStatus6selectEi
libffado.so.2:_ZN7Control15StreamingStatus8selectedEv
libffado.so.2:_ZN7Control15StreamingStatusC1ER11FFADODevice
libffado.so.2:_ZN7Control15StreamingStatusC2ER11FFADODevice
libffado.so.2:_ZN7Control16SamplerateSelect12getEnumLabelB5cxx11Ei
libffado.so.2:_ZN7Control16SamplerateSelect14canChangeValueEv
libffado.so.2:_ZN7Control16SamplerateSelect16devConfigChangedEi
libffado.so.2:_ZN7Control16SamplerateSelect4showEv
libffado.so.2:_ZN7Control16SamplerateSelect5countEv
libffado.so.2:_ZN7Control16SamplerateSelect6selectEi
libffado.so.2:_ZN7Control16SamplerateSelect8selectedEv
libffado.so.2:_ZN7Control16SamplerateSelectC1ER11FFADODevice
libffado.so.2:_ZN7Control16SamplerateSelectC2ER11FFADODevice
libffado.so.2:_ZN7Control7Element10emitSignalEi
libffado.so.2:_ZN7Control7Element10emitSignalEii
libffado.so.2:_ZN7Control7Element11lockControlEv
libffado.so.2:_ZN7Control7Element13unlockControlEv
libffado.so.2:_ZN7Control7Element14canChangeValueEv
libffado.so.2:_ZN7Control7Element15isControlLockedEv
libffado.so.2:_ZN7Control7Element15setVerboseLevelEi
libffado.so.2:_ZN7Control7Element16addSignalHandlerEPNS_13SignalFunctorE
libffado.so.2:_ZN7Control7Element16remSignalHandlerEPNS_13SignalFunctorE
libffado.so.2:_ZN7Control7Element4showEv
libffado.so.2:_ZN7Control7Element7getLockEv
libffado.so.2:_ZN7Control7ElementC1EPS0_
libffado.so.2:_ZN7Control7ElementC1EPS0_NSt7__cxx1112basic_stringIcSt11char_traitsIcESaIcEEE
libffado.so.2:_ZN7Control7ElementC2EPS0_
libffado.so.2:_ZN7Control7ElementC2EPS0_NSt7__cxx1112basic_stringIcSt11char_traitsIcESaIcEEE
libffado.so.2:_ZN7Control7ElementD0Ev
libffado.so.2:_ZN7Control7ElementD1Ev
libffado.so.2:_ZN7Control7ElementD2Ev
libffado.so.2:_ZN7Control8Nickname14canChangeValueEv
libffado.so.2:_ZN7Control8Nickname4showEv
libffado.so.2:_ZN7Control8Nickname8getValueB5cxx11Ev
libffado.so.2:_ZN7Control8Nickname8setValueENSt7__cxx1112basic_stringIcSt11char_traitsIcESaIcEEE
libffado.so.2:_ZN7Control8NicknameC1ER11FFADODevice
libffado.so.2:_ZN7Control8NicknameC2ER11FFADODevice
libffado.so.2:_ZN7Control9Container10addElementEPNS_7ElementE
libffado.so.2:_ZN7Control9Container13clearElementsEb
libffado.so.2:_ZN7Control9Container13countElementsEv
libffado.so.2:_ZN7Control9Container13deleteElementEPNS_7ElementE
libffado.so.2:_ZN7Control9Container15setVerboseLevelEi
libffado.so.2:_ZN7Control9Container16getElementByNameENSt7__cxx1112basic_stringIcSt11char_traitsIcESaIcEEE
libffado.so.2:_ZN7Control9Container16getElementVectorEv
libffado.so.2:_ZN7Control9Container19deleteElementNoLockEPNS_7ElementE
libffado.so.2:_ZN7Control9Container4showEv
libffado.so.2:_ZN7Control9ContainerC1EPNS_7ElementE
libffado.so.2:_ZN7Control9ContainerC1EPNS_7ElementENSt7__cxx1112basic_stringIcSt11char_traitsIcESaIcEEE
libffado.so.2:_ZN7Control9ContainerC2EPNS_7ElementE
libffado.so.2:_ZN7Control9ContainerC2EPNS_7ElementENSt7__cxx1112basic_stringIcSt11char_traitsIcESaIcEEE
libffado.so.2:_ZN7Control9ContainerD0Ev
libffado.so.2:_ZN7Control9ContainerD1Ev
libffado.so.2:_ZN7Control9ContainerD2Ev
libffado.so.2:_ZN8IEC61883C1Ev
libffado.so.2:_ZN8IEC61883C2Ev
libffado.so.2:_ZN8IEC61883D0Ev
libffado.so.2:_ZN8IEC61883D1Ev
libffado.so.2:_ZN8IEC61883D2Ev
libffado.so.2:_ZN9ConfigRom10initializeEv
libffado.so.2:_ZN9ConfigRom11compareGUIDERKS_S1_
libffado.so.2:_ZN9ConfigRom11deserializeENSt7__cxx1112basic_stringIcSt11char_traitsIcESaIcEEERN4Util13IODeserializeER15Ieee1394Service
libffado.so.2:_ZN9ConfigRom13updatedNodeIdEv
libffado.so.2:_ZN9ConfigRom14get1394ServiceEv
libffado.so.2:_ZN9ConfigRom20processRootDirectoryEP11csr1212_csr
libffado.so.2:_ZN9ConfigRom20processUnitDirectoryEP11csr1212_csrP14csr1212_keyvalPj
libffado.so.2:_ZN9ConfigRom9serializeENSt7__cxx1112basic_stringIcSt11char_traitsIcESaIcEEERN4Util11IOSerializeE
libffado.so.2:_ZN9ConfigRom9setNodeIdEt
libffado.so.2:_ZN9ConfigRomC1ER15Ieee1394Servicet
libffado.so.2:_ZN9ConfigRomC1Ev
libffado.so.2:_ZN9ConfigRomC2ER15Ieee1394Servicet
libffado.so.2:_ZN9ConfigRomC2Ev
libffado.so.2:_ZN9ConfigRomeqERKS_
libffado.so.2:_ZN9FireWorks12FirmwareUtil11eraseBlocksEjj
libffado.so.2:_ZN9FireWorks12FirmwareUtil16isValidForDeviceENS_8FirmwareE
libffado.so.2:_ZN9FireWorks12FirmwareUtil21getFirmwareFromDeviceEjj
libffado.so.2:_ZN9FireWorks12FirmwareUtil21writeFirmwareToDeviceENS_8FirmwareE
libffado.so.2:_ZN9FireWorks12FirmwareUtil4showEv
libffado.so.2:_ZN9FireWorks12FirmwareUtilC1ERNS_6DeviceE
libffado.so.2:_ZN9FireWorks12FirmwareUtilC2ERNS_6DeviceE
libffado.so.2:_ZN9FireWorks12FirmwareUtilD0Ev
libffado.so.2:_ZN9FireWorks12FirmwareUtilD1Ev
libffado.so.2:_ZN9FireWorks12FirmwareUtilD2Ev
libffado.so.2:_ZN9FireWorks12MultiControl4showEv
libffado.so.2:_ZN9FireWorks12MultiControl8setValueEi
libffado.so.2:_ZN9FireWorks12MultiControlC1ERNS_6DeviceENS0_5eTypeE
libffado.so.2:_ZN9FireWorks12MultiControlC1ERNS_6DeviceENS0_5eTypeENSt7__cxx1112basic_stringIcSt11char_traitsIcESaIcEEE
libffado.so.2:_ZN9FireWorks12MultiControlC2ERNS_6DeviceENS0_5eTypeE
libffado.so.2:_ZN9FireWorks12MultiControlC2ERNS_6DeviceENS0_5eTypeENSt7__cxx1112basic_stringIcSt11char_traitsIcESaIcEEE
libffado.so.2:_ZN9FireWorks12MultiControlD0Ev
libffado.so.2:_ZN9FireWorks12MultiControlD1Ev
libffado.so.2:_ZN9FireWorks12MultiControlD2Ev
libffado.so.2:_ZN9FireWorks13BinaryControl4showEv
libffado.so.2:_ZN9FireWorks13BinaryControl8getValueEv
libffado.so.2:_ZN9FireWorks13BinaryControl8setValueEi
libffado.so.2:_ZN9FireWorks13BinaryControlC1ERNS_6DeviceENS_12eMixerTargetENS_13eMixerCommandEii
libffado.so.2:_ZN9FireWorks13BinaryControlC1ERNS_6DeviceENS_12eMixerTargetENS_13eMixerCommandEiiNSt7__cxx1112basic_stringIcSt11char_traitsIcESaIcEEE
libffado.so.2:_ZN9FireWorks13BinaryControlC2ERNS_6DeviceENS_12eMixerTargetENS_13eMixerCommandEii
libffado.so.2:_ZN9FireWorks13BinaryControlC2ERNS_6DeviceENS_12eMixerTargetENS_13eMixerCommandEiiNSt7__cxx1112basic_stringIcSt11char_traitsIcESaIcEEE
libffado.so.2:_ZN9FireWorks13BinaryControlD0Ev
libffado.so.2:_ZN9FireWorks13BinaryControlD1Ev
libffado.so.2:_ZN9FireWorks13BinaryControlD2Ev
libffado.so.2:_ZN9FireWorks13EfcOverAVCCmd11deserializeERN4Util3Cmd14IISDeserializeE
libffado.so.2:_ZN9FireWorks13EfcOverAVCCmd9serializeERN4Util3Cmd12IOSSerializeE
libffado.so.2:_ZN9FireWorks13EfcOverAVCCmdC1ER15Ieee1394Service
libffado.so.2:_ZN9FireWorks13EfcOverAVCCmdC2ER15Ieee1394Service
libffado.so.2:_ZN9FireWorks13EfcOverAVCCmdD0Ev
libffado.so.2:_ZN9FireWorks13EfcOverAVCCmdD1Ev
libffado.so.2:_ZN9FireWorks13EfcOverAVCCmdD2Ev
libffado.so.2:_ZN9FireWorks13HwInfoControl4showEv
libffado.so.2:_ZN9FireWorks13HwInfoControl8getValueEv
libffado.so.2:_ZN9FireWorks13HwInfoControlC1ERNS_6DeviceENS0_12eHwInfoFieldE
libffado.so.2:_ZN9FireWorks13HwInfoControlC1ERNS_6DeviceENS0_12eHwInfoFieldENSt7__cxx1112basic_stringIcSt11char_traitsIcESaIcEEE
libffado.so.2:_ZN9FireWorks13HwInfoControlC2ERNS_6DeviceENS0_12eHwInfoFieldE
libffado.so.2:_ZN9FireWorks13HwInfoControlC2ERNS_6DeviceENS0_12eHwInfoFieldENSt7__cxx1112basic_stringIcSt11char_traitsIcESaIcEEE
libffado.so.2:_ZN9FireWorks13HwInfoControlD0Ev
libffado.so.2:_ZN9FireWorks13HwInfoControlD1Ev
libffado.so.2:_ZN9FireWorks13HwInfoControlD2Ev
libffado.so.2:_ZN9FireWorks13SimpleControl4showEv
libffado.so.2:_ZN9FireWorks13SimpleControl8getValueEv
libffado.so.2:_ZN9FireWorks13SimpleControl8setValueEd
libffado.so.2:_ZN9FireWorks13SimpleControlC1ERNS_6DeviceENS_12eMixerTargetENS_13eMixerCommandEi
libffado.so.2:_ZN9FireWorks13SimpleControlC1ERNS_6DeviceENS_12eMixerTargetENS_13eMixerCommandEiNSt7__cxx1112basic_stringIcSt11char_traitsIcESaIcEEE
libffado.so.2:_ZN9FireWorks13SimpleControlC2ERNS_6DeviceENS_12eMixerTargetENS_13eMixerCommandEi
libffado.so.2:_ZN9FireWorks13SimpleControlC2ERNS_6DeviceENS_12eMixerTargetENS_13eMixerCommandEiNSt7__cxx1112basic_stringIcSt11char_traitsIcESaIcEEE
libffado.so.2:_ZN9FireWorks13SimpleControlD0Ev
libffado.so.2:_ZN9FireWorks13SimpleControlD1Ev
libffado.so.2:_ZN9FireWorks13SimpleControlD2Ev
libffado.so.2:_ZN9FireWorks14EfcGetClockCmd10showEfcCmdEv
libffado.so.2:_ZN9FireWorks14EfcGetClockCmd11deserializeERN4Util3Cmd14IISDeserializeE
libffado.so.2:_ZN9FireWorks14EfcGetClockCmd9serializeERN4Util3Cmd12IOSSerializeE
libffado.so.2:_ZN9FireWorks14EfcGetClockCmdC1Ev
libffado.so.2:_ZN9FireWorks14EfcGetClockCmdC2Ev
libffado.so.2:_ZN9FireWorks14EfcGetFlagsCmd10showEfcCmdEv
libffado.so.2:_ZN9FireWorks14EfcGetFlagsCmd11deserializeERN4Util3Cmd14IISDeserializeE
libffado.so.2:_ZN9FireWorks14EfcGetFlagsCmd9serializeERN4Util3Cmd12IOSSerializeE
libffado.so.2:_ZN9FireWorks14EfcGetFlagsCmdC1Ev
libffado.so.2:_ZN9FireWorks14EfcGetFlagsCmdC2Ev
libffado.so.2:_ZN9FireWorks14EfcIdentifyCmd10showEfcCmdEv
libffado.so.2:_ZN9FireWorks14EfcIdentifyCmd11deserializeERN4Util3Cmd14IISDeserializeE
libffado.so.2:_ZN9FireWorks14EfcIdentifyCmd9serializeERN4Util3Cmd12IOSSerializeE
libffado.so.2:_ZN9FireWorks14EfcIdentifyCmdC1Ev
libffado.so.2:_ZN9FireWorks14EfcIdentifyCmdC2Ev
libffado.so.2:_ZN9FireWorks14EfcSetClockCmd10showEfcCmdEv
libffado.so.2:_ZN9FireWorks14EfcSetClockCmd11deserializeERN4Util3Cmd14IISDeserializeE
libffado.so.2:_ZN9FireWorks14EfcSetClockCmd9serializeERN4Util3Cmd12IOSSerializeE
libffado.so.2:_ZN9FireWorks14EfcSetClockCmdC1Ev
libffado.so.2:_ZN9FireWorks14EfcSetClockCmdC2Ev
libffado.so.2:_ZN9FireWorks14MonitorControl10getColNameB5cxx11Ei
libffado.so.2:_ZN9FireWorks14MonitorControl10getRowNameB5cxx11Ei
libffado.so.2:_ZN9FireWorks14MonitorControl11getColCountEv
libffado.so.2:_ZN9FireWorks14MonitorControl11getRowCountEv
libffado.so.2:_ZN9FireWorks14MonitorControl4showEv
libffado.so.2:_ZN9FireWorks14MonitorControl8canWriteEii
libffado.so.2:_ZN9FireWorks14MonitorControl8getValueEii
libffado.so.2:_ZN9FireWorks14MonitorControl8setValueEiid
libffado.so.2:_ZN9FireWorks14MonitorControlC1ERNS_6DeviceENS0_15eMonitorControlE
libffado.so.2:_ZN9FireWorks14MonitorControlC1ERNS_6DeviceENS0_15eMonitorControlENSt7__cxx1112basic_stringIcSt11char_traitsIcESaIcEEE
libffado.so.2:_ZN9FireWorks14MonitorControlC2ERNS_6DeviceENS0_15eMonitorControlE
libffado.so.2:_ZN9FireWorks14MonitorControlC2ERNS_6DeviceENS0_15eMonitorControlENSt7__cxx1112basic_stringIcSt11char_traitsIcESaIcEEE
libffado.so.2:_ZN9FireWorks15EfcFlashLockCmd10showEfcCmdEv
libffado.so.2:_ZN9FireWorks15EfcFlashLockCmd11deserializeERN4Util3Cmd14IISDeserializeE
libffado.so.2:_ZN9FireWorks15EfcFlashLockCmd9serializeERN4Util3Cmd12IOSSerializeE
libffado.so.2:_ZN9FireWorks15EfcFlashLockCmdC1Ev
libffado.so.2:_ZN9FireWorks15EfcFlashLockCmdC2Ev
libffado.so.2:_ZN9FireWorks15EfcFlashReadCmd10showEfcCmdEv
libffado.so.2:_ZN9FireWorks15EfcFlashReadCmd11deserializeERN4Util3Cmd14IISDeserializeE
libffado.so.2:_ZN9FireWorks15EfcFlashReadCmd9serializeERN4Util3Cmd12IOSSerializeE
libffado.so.2:_ZN9FireWorks15EfcFlashReadCmdC1Ev
libffado.so.2:_ZN9FireWorks15EfcFlashReadCmdC2Ev
libffado.so.2:_ZN9FireWorks15IOConfigControl4showEv
libffado.so.2:_ZN9FireWorks15IOConfigControl8getValueEv
libffado.so.2:_ZN9FireWorks15IOConfigControl8setValueEi
libffado.so.2:_ZN9FireWorks15IOConfigControlC1ERNS_6DeviceENS_17eIOConfigRegisterE
libffado.so.2:_ZN9FireWorks15IOConfigControlC1ERNS_6DeviceENS_17eIOConfigRegisterENSt7__cxx1112basic_stringIcSt11char_traitsIcESaIcEEE
libffado.so.2:_ZN9FireWorks15IOConfigControlC2ERNS_6DeviceENS_17eIOConfigRegisterE
libffado.so.2:_ZN9FireWorks15IOConfigControlC2ERNS_6DeviceENS_17eIOConfigRegisterENSt7__cxx1112basic_stringIcSt11char_traitsIcESaIcEEE
libffado.so.2:_ZN9FireWorks15IOConfigControlD0Ev
libffado.so.2:_ZN9FireWorks15IOConfigControlD1Ev
libffado.so.2:_ZN9FireWorks15IOConfigControlD2Ev
libffado.so.2:_ZN9FireWorks16EfcFlashEraseCmd10showEfcCmdEv
libffado.so.2:_ZN9FireWorks16EfcFlashEraseCmd11deserializeERN4Util3Cmd14IISDeserializeE
libffado.so.2:_ZN9FireWorks16EfcFlashEraseCmd9serializeERN4Util3Cmd12IOSSerializeE
libffado.so.2:_ZN9FireWorks16EfcFlashEraseCmdC1Ev
libffado.so.2:_ZN9FireWorks16EfcFlashEraseCmdC2Ev
libffado.so.2:_ZN9FireWorks16EfcFlashWriteCmd10showEfcCmdEv
libffado.so.2:_ZN9FireWorks16EfcFlashWriteCmd11deserializeERN4Util3Cmd14IISDeserializeE
libffado.so.2:_ZN9FireWorks16EfcFlashWriteCmd9serializeERN4Util3Cmd12IOSSerializeE
libffado.so.2:_ZN9FireWorks16EfcFlashWriteCmdC1Ev
libffado.so.2:_ZN9FireWorks16EfcFlashWriteCmdC2Ev
libffado.so.2:_ZN9FireWorks16SpdifModeControl4showEv
libffado.so.2:_ZN9FireWorks16SpdifModeControl8getValueEv
libffado.so.2:_ZN9FireWorks16SpdifModeControl8setValueEi
libffado.so.2:_ZN9FireWorks16SpdifModeControlC1ERNS_6DeviceE
libffado.so.2:_ZN9FireWorks16SpdifModeControlC1ERNS_6DeviceENSt7__cxx1112basic_stringIcSt11char_traitsIcESaIcEEE
libffado.so.2:_ZN9FireWorks16SpdifModeControlC2ERNS_6DeviceE
libffado.so.2:_ZN9FireWorks16SpdifModeControlC2ERNS_6DeviceENSt7__cxx1112basic_stringIcSt11char_traitsIcESaIcEEE
libffado.so.2:_ZN9FireWorks16SpdifModeControlD0Ev
libffado.so.2:_ZN9FireWorks16SpdifModeControlD1Ev
libffado.so.2:_ZN9FireWorks16SpdifModeControlD2Ev
libffado.so.2:_ZN9FireWorks17EfcChangeFlagsCmd10showEfcCmdEv
libffado.so.2:_ZN9FireWorks17EfcChangeFlagsCmd11deserializeERN4Util3Cmd14IISDeserializeE
libffado.so.2:_ZN9FireWorks17EfcChangeFlagsCmd9serializeERN4Util3Cmd12IOSSerializeE
libffado.so.2:_ZN9FireWorks17EfcChangeFlagsCmdC1Ev
libffado.so.2:_ZN9FireWorks17EfcChangeFlagsCmdC2Ev
libffado.so.2:_ZN9FireWorks18EfcGenericMixerCmd10setCommandENS_13eMixerCommandE
libffado.so.2:_ZN9FireWorks18EfcGenericMixerCmd10showEfcCmdEv
libffado.so.2:_ZN9FireWorks18EfcGenericMixerCmd11deserializeERN4Util3Cmd14IISDeserializeE
libffado.so.2:_ZN9FireWorks18EfcGenericMixerCmd7setTypeENS_8eCmdTypeE
libffado.so.2:_ZN9FireWorks18EfcGenericMixerCmd9serializeERN4Util3Cmd12IOSSerializeE
libffado.so.2:_ZN9FireWorks18EfcGenericMixerCmd9setTargetENS_12eMixerTargetE
libffado.so.2:_ZN9FireWorks18EfcGenericMixerCmdC1ENS_12eMixerTargetENS_13eMixerCommandE
libffado.so.2:_ZN9FireWorks18EfcGenericMixerCmdC1ENS_12eMixerTargetENS_13eMixerCommandEi
libffado.so.2:_ZN9FireWorks18EfcGenericMixerCmdC2ENS_12eMixerTargetENS_13eMixerCommandE
libffado.so.2:_ZN9FireWorks18EfcGenericMixerCmdC2ENS_12eMixerTargetENS_13eMixerCommandEi
libffado.so.2:_ZN9FireWorks18EfcHardwareInfoCmd10showEfcCmdEv
libffado.so.2:_ZN9FireWorks18EfcHardwareInfoCmd11deserializeERN4Util3Cmd14IISDeserializeE
libffado.so.2:_ZN9FireWorks18EfcHardwareInfoCmd9serializeERN4Util3Cmd12IOSSerializeE
libffado.so.2:_ZN9FireWorks18EfcHardwareInfoCmdC1Ev
libffado.so.2:_ZN9FireWorks18EfcHardwareInfoCmdC2Ev
libffado.so.2:_ZN9FireWorks18EfcPhyReconnectCmd10showEfcCmdEv
libffado.so.2:_ZN9FireWorks18EfcPhyReconnectCmd11deserializeERN4Util3Cmd14IISDeserializeE
libffado.so.2:_ZN9FireWorks18EfcPhyReconnectCmd9serializeERN4Util3Cmd12IOSSerializeE
libffado.so.2:_ZN9FireWorks18EfcPhyReconnectCmdC1Ev
libffado.so.2:_ZN9FireWorks18EfcPhyReconnectCmdC2Ev
libffado.so.2:_ZN9FireWorks18EfcPolledValuesCmd10showEfcCmdEv
libffado.so.2:_ZN9FireWorks18EfcPolledValuesCmd11deserializeERN4Util3Cmd14IISDeserializeE
libffado.so.2:_ZN9FireWorks18EfcPolledValuesCmd9serializeERN4Util3Cmd12IOSSerializeE
libffado.so.2:_ZN9FireWorks18EfcPolledValuesCmdC1Ev
libffado.so.2:_ZN9FireWorks18EfcPolledValuesCmdC2Ev
libffado.so.2:_ZN9FireWorks20EfcFlashGetStatusCmd10showEfcCmdEv
libffado.so.2:_ZN9FireWorks20EfcFlashGetStatusCmd11deserializeERN4Util3Cmd14IISDeserializeE
libffado.so.2:_ZN9FireWorks20EfcFlashGetStatusCmd9serializeERN4Util3Cmd12IOSSerializeE
libffado.so.2:_ZN9FireWorks20EfcFlashGetStatusCmdC1Ev
libffado.so.2:_ZN9FireWorks20EfcFlashGetStatusCmdC2Ev
libffado.so.2:_ZN9FireWorks20EfcGenericMonitorCmd10showEfcCmdEv
libffado.so.2:_ZN9FireWorks20EfcGenericMonitorCmd11deserializeERN4Util3Cmd14IISDeserializeE
libffado.so.2:_ZN9FireWorks20EfcGenericMonitorCmd9serializeERN4Util3Cmd12IOSSerializeE
libffado.so.2:_ZN9FireWorks20EfcGenericMonitorCmdC1ENS0_8eCmdTypeENS_15eMonitorCommandE
libffado.so.2:_ZN9FireWorks20EfcGenericMonitorCmdC2ENS0_8eCmdTypeENS_15eMonitorCommandE
libffado.so.2:_ZN9FireWorks20eMixerTargetToStringENS_12eMixerTargetE
libffado.so.2:_ZN9FireWorks21EfcGenericIOConfigCmd10showEfcCmdEv
libffado.so.2:_ZN9FireWorks21EfcGenericIOConfigCmd11deserializeERN4Util3Cmd14IISDeserializeE
libffado.so.2:_ZN9FireWorks21EfcGenericIOConfigCmd11setRegisterENS_17eIOConfigRegisterE
libffado.so.2:_ZN9FireWorks21EfcGenericIOConfigCmd7setTypeENS_8eCmdTypeE
libffado.so.2:_ZN9FireWorks21EfcGenericIOConfigCmd9serializeERN4Util3Cmd12IOSSerializeE
libffado.so.2:_ZN9FireWorks21EfcGenericIOConfigCmdC1ENS_17eIOConfigRegisterE
libffado.so.2:_ZN9FireWorks21EfcGenericIOConfigCmdC2ENS_17eIOConfigRegisterE
libffado.so.2:_ZN9FireWorks21EfcIsocMapIOConfigCmd10showEfcCmdEv
libffado.so.2:_ZN9FireWorks21EfcIsocMapIOConfigCmd11deserializeERN4Util3Cmd14IISDeserializeE
libffado.so.2:_ZN9FireWorks21EfcIsocMapIOConfigCmd7setTypeENS_8eCmdTypeE
libffado.so.2:_ZN9FireWorks21EfcIsocMapIOConfigCmd9serializeERN4Util3Cmd12IOSSerializeE
libffado.so.2:_ZN9FireWorks21EfcIsocMapIOConfigCmdC1Ev
libffado.so.2:_ZN9FireWorks21EfcIsocMapIOConfigCmdC2Ev
libffado.so.2:_ZN9FireWorks21eMixerCommandToStringENS_13eMixerCommandE
libffado.so.2:_ZN9FireWorks22PlaybackRoutingControl4showEv
libffado.so.2:_ZN9FireWorks22PlaybackRoutingControl8GetStateEPNS_21EfcIsocMapIOConfigCmdE
libffado.so.2:_ZN9FireWorks22PlaybackRoutingControl8getValueEi
libffado.so.2:_ZN9FireWorks22PlaybackRoutingControl8setValueEii
libffado.so.2:_ZN9FireWorks22PlaybackRoutingControlC1ERNS_6DeviceE
libffado.so.2:_ZN9FireWorks22PlaybackRoutingControlC1ERNS_6DeviceENSt7__cxx1112basic_stringIcSt11char_traitsIcESaIcEEE
libffado.so.2:_ZN9FireWorks22PlaybackRoutingControlC2ERNS_6DeviceE
libffado.so.2:_ZN9FireWorks22PlaybackRoutingControlC2ERNS_6DeviceENSt7__cxx1112basic_stringIcSt11char_traitsIcESaIcEEE
libffado.so.2:_ZN9FireWorks22PlaybackRoutingControlD0Ev
libffado.so.2:_ZN9FireWorks22PlaybackRoutingControlD1Ev
libffado.so.2:_ZN9FireWorks22PlaybackRoutingControlD2Ev
libffado.so.2:_ZN9FireWorks23eMonitorCommandToStringENS_15eMonitorCommandE
libffado.so.2:_ZN9FireWorks25EfcFlashGetSessionBaseCmd10showEfcCmdEv
libffado.so.2:_ZN9FireWorks25EfcFlashGetSessionBaseCmd11deserializeERN4Util3Cmd14IISDeserializeE
libffado.so.2:_ZN9FireWorks25EfcFlashGetSessionBaseCmd9serializeERN4Util3Cmd12IOSSerializeE
libffado.so.2:_ZN9FireWorks25EfcFlashGetSessionBaseCmdC1Ev
libffado.so.2:_ZN9FireWorks25EfcFlashGetSessionBaseCmdC2Ev
libffado.so.2:_ZN9FireWorks25eIOConfigRegisterToStringENS_17eIOConfigRegisterE
libffado.so.2:_ZN9FireWorks4ECHO9AudioFire10showDeviceEv
libffado.so.2:_ZN9FireWorks4ECHO9AudioFireC1ER13DeviceManagerSt10shared_ptrI9ConfigRomE
libffado.so.2:_ZN9FireWorks4ECHO9AudioFireC2ER13DeviceManagerSt10shared_ptrI9ConfigRomE
libffado.so.2:_ZN9FireWorks4ECHO9AudioFireD0Ev
libffado.so.2:_ZN9FireWorks4ECHO9AudioFireD1Ev
libffado.so.2:_ZN9FireWorks4ECHO9AudioFireD2Ev
libffado.so.2:_ZN9FireWorks6Device10buildMixerEv
libffado.so.2:_ZN9FireWorks6Device10eraseFlashEj
libffado.so.2:_ZN9FireWorks6Device10showDeviceEv
libffado.so.2:_ZN9FireWorks6Device10writeFlashEjjPj
libffado.so.2:_ZN9FireWorks6Device11getClockSrcEv
libffado.so.2:_ZN9FireWorks6Device11loadSessionEv
libffado.so.2:_ZN9FireWorks6Device11saveSessionEv
libffado.so.2:_ZN9FireWorks6Device11setClockSrcEj
libffado.so.2:_ZN9FireWorks6Device12createDeviceER13DeviceManagerSt10shared_ptrI9ConfigRomE
libffado.so.2:_ZN9FireWorks6Device12destroyMixerEv
libffado.so.2:_ZN9FireWorks6Device12doEfcOverAVCERNS_6EfcCmdE
libffado.so.2:_ZN9FireWorks6Device12isClockValidEj
libffado.so.2:_ZN9FireWorks6Device12waitForFlashEj
libffado.so.2:_ZN9FireWorks6Device14getSessionBaseEv
libffado.so.2:_ZN9FireWorks6Device16discoverUsingEFCEv
libffado.so.2:_ZN9FireWorks6Device16eraseFlashBlocksEjj
libffado.so.2:_ZN9FireWorks6Device18updatePolledValuesEv
libffado.so.2:_ZN9FireWorks6Device20clockIdToClockSourceEj
libffado.so.2:_ZN9FireWorks6Device20getActiveClockSourceEv
libffado.so.2:_ZN9FireWorks6Device20getSamplingFrequencyEv
libffado.so.2:_ZN9FireWorks6Device20setActiveClockSourceEN11FFADODevice11ClockSourceE
libffado.so.2:_ZN9FireWorks6Device20setSamplingFrequencyEi
libffado.so.2:_ZN9FireWorks6Device24getSupportedClockSourcesEv
libffado.so.2:_ZN9FireWorks6Device31getSupportedSamplingFrequenciesEv
libffado.so.2:_ZN9FireWorks6Device5probeERN4Util13ConfigurationER9ConfigRomb
libffado.so.2:_ZN9FireWorks6Device8discoverEv
libffado.so.2:_ZN9FireWorks6Device8getClockERNS_14EfcGetClockCmdE
libffado.so.2:_ZN9FireWorks6Device8setClockENS_14EfcSetClockCmdE
libffado.so.2:_ZN9FireWorks6Device9lockFlashEb
libffado.so.2:_ZN9FireWorks6Device9readFlashEjjPj
libffado.so.2:_ZN9FireWorks6DeviceC1ER13DeviceManagerSt10shared_ptrI9ConfigRomE
libffado.so.2:_ZN9FireWorks6DeviceC2ER13DeviceManagerSt10shared_ptrI9ConfigRomE
libffado.so.2:_ZN9FireWorks6DeviceD0Ev
libffado.so.2:_ZN9FireWorks6DeviceD1Ev
libffado.so.2:_ZN9FireWorks6DeviceD2Ev
libffado.so.2:_ZN9FireWorks6EfcCmd10showEfcCmdEv
libffado.so.2:_ZN9FireWorks6EfcCmd11deserializeERN4Util3Cmd14IISDeserializeE
libffado.so.2:_ZN9FireWorks6EfcCmd15setVerboseLevelEi
libffado.so.2:_ZN9FireWorks6EfcCmd9serializeERN4Util3Cmd12IOSSerializeE
libffado.so.2:_ZN9FireWorks6EfcCmdC1Ejj
libffado.so.2:_ZN9FireWorks6EfcCmdC1Ev
libffado.so.2:_ZN9FireWorks6EfcCmdC2Ejj
libffado.so.2:_ZN9FireWorks6EfcCmdC2Ev
libffado.so.2:_ZN9FireWorks6EfcCmdD0Ev
libffado.so.2:_ZN9FireWorks6EfcCmdD1Ev
libffado.so.2:_ZN9FireWorks6EfcCmdD2Ev
libffado.so.2:_ZN9FireWorks7Session10saveToFileENSt7__cxx1112basic_stringIcSt11char_traitsIcESaIcEEE
libffado.so.2:_ZN9FireWorks7Session12calculateCRCEPvm
libffado.so.2:_ZN9FireWorks7Session12calculateCRCEv
libffado.so.2:_ZN9FireWorks7Session12loadFromFileENSt7__cxx1112basic_stringIcSt11char_traitsIcESaIcEEE
libffado.so.2:_ZN9FireWorks7Session12saveToDeviceERNS_6DeviceE
libffado.so.2:_ZN9FireWorks7Session12saveToMemoryEPvm
libffado.so.2:_ZN9FireWorks7Session14loadFromDeviceERNS_6DeviceE
libffado.so.2:_ZN9FireWorks7Session14loadFromMemoryEPvm
libffado.so.2:_ZN9FireWorks7Session4showEv
libffado.so.2:_ZN9FireWorks7Session8dumpDataEv
libffado.so.2:_ZN9FireWorks7SessionC1Ev
libffado.so.2:_ZN9FireWorks7SessionC2Ev
libffado.so.2:_ZN9FireWorks7SessionD0Ev
libffado.so.2:_ZN9FireWorks7SessionD1Ev
libffado.so.2:_ZN9FireWorks7SessionD2Ev
libffado.so.2:_ZN9FireWorks8Firmware12getWriteDataEPj
libffado.so.2:_ZN9FireWorks8Firmware13intToeDatTypeEi
libffado.so.2:_ZN9FireWorks8Firmware14loadFromMemoryEPjjj
libffado.so.2:_ZN9FireWorks8Firmware15getWriteDataLenEv
libffado.so.2:_ZN9FireWorks8Firmware16eDatTypeToStringENS0_8eDatTypeE
libffado.so.2:_ZN9FireWorks8Firmware4showEv
libffado.so.2:_ZN9FireWorks8Firmware8dumpDataEv
libffado.so.2:_ZN9FireWorks8Firmware8loadFileENSt7__cxx1112basic_stringIcSt11char_traitsIcESaIcEEE
libffado.so.2:_ZN9FireWorks8FirmwareC1ERKS0_
libffado.so.2:_ZN9FireWorks8FirmwareC1Ev
libffado.so.2:_ZN9FireWorks8FirmwareC2ERKS0_
libffado.so.2:_ZN9FireWorks8FirmwareC2Ev
libffado.so.2:_ZN9FireWorks8FirmwareD0Ev
libffado.so.2:_ZN9FireWorks8FirmwareD1Ev
libffado.so.2:_ZN9FireWorks8FirmwareD2Ev
libffado.so.2:_ZN9FireWorks8FirmwareaSERKS0_
libffado.so.2:_ZN9FireWorks8FirmwareeqERKS0_
libffado.so.2:_ZN9Streaming11PortManager10resetPortsEv
libffado.so.2:_ZN9Streaming11PortManager12getPortAtIdxEj
libffado.so.2:_ZN9Streaming11PortManager12getPortCountENS_4Port10E_PortTypeE
libffado.so.2:_ZN9Streaming11PortManager12getPortCountEv
libffado.so.2:_ZN9Streaming11PortManager12preparePortsEv
libffado.so.2:_ZN9Streaming11PortManager12registerPortEPNS_4PortE
libffado.so.2:_ZN9Streaming11PortManager14makeNameUniqueEPNS_4PortE
libffado.so.2:_ZN9Streaming11PortManager14unregisterPortEPNS_4PortE
libffado.so.2:_ZN9Streaming11PortManager15setVerboseLevelEi
libffado.so.2:_ZN9Streaming11PortManager18callUpdateHandlersEv
libffado.so.2:_ZN9Streaming11PortManager22getUpdateHandlerForPtrEPv
libffado.so.2:_ZN9Streaming11PortManager27addPortManagerUpdateHandlerEPN4Util7FunctorE
libffado.so.2:_ZN9Streaming11PortManager27remPortManagerUpdateHandlerEPN4Util7FunctorE
libffado.so.2:_ZN9Streaming11PortManager9initPortsEv
libffado.so.2:_ZN9Streaming11PortManagerC1Ev
libffado.so.2:_ZN9Streaming11PortManagerC2Ev
libffado.so.2:_ZN9Streaming11PortManagerD0Ev
libffado.so.2:_ZN9Streaming11PortManagerD1Ev
libffado.so.2:_ZN9Streaming11PortManagerD2Ev
libffado.so.2:_ZN9Streaming12PacketBuffer10initializeEv
libffado.so.2:_ZN9Streaming12PacketBuffer13getNextPacketEPji
libffado.so.2:_ZN9Streaming12PacketBuffer20getBufferFillPacketsEv
libffado.so.2:_ZN9Streaming12PacketBuffer20getBufferFillPayloadEv
libffado.so.2:_ZN9Streaming12PacketBuffer5flushEv
libffado.so.2:_ZN9Streaming12PacketBuffer9addPacketEPji
libffado.so.2:_ZN9Streaming12PacketBufferD0Ev
libffado.so.2:_ZN9Streaming12PacketBufferD1Ev
libffado.so.2:_ZN9Streaming12PacketBufferD2Ev
libffado.so.2:_ZN9Streaming15StreamProcessor10canConsumeEj
libffado.so.2:_ZN9Streaming15StreamProcessor10canProduceEj
libffado.so.2:_ZN9Streaming15StreamProcessor10dropFramesEjl
libffado.so.2:_ZN9Streaming15StreamProcessor11ePSToStringENS0_15eProcessorStateE
libffado.so.2:_ZN9Streaming15StreamProcessor11ePTToStringENS0_14eProcessorTypeE
libffado.so.2:_ZN9Streaming15StreamProcessor11handlerDiedEv
libffado.so.2:_ZN9Streaming15StreamProcessor11shiftStreamEi
libffado.so.2:_ZN9Streaming15StreamProcessor11stopRunningEl
libffado.so.2:_ZN9Streaming15StreamProcessor11updateStateEv
libffado.so.2:_ZN9Streaming15StreamProcessor12doDryRunningEv
libffado.so.2:_ZN9Streaming15StreamProcessor12getFramesDryEjl
libffado.so.2:_ZN9Streaming15StreamProcessor12getFramesWetEjl
libffado.so.2:_ZN9Streaming15StreamProcessor12putFramesDryEjl
libffado.so.2:_ZN9Streaming15StreamProcessor12putFramesWetEjl
libffado.so.2:_ZN9Streaming15StreamProcessor12startRunningEl
libffado.so.2:_ZN9Streaming15StreamProcessor12waitForStateENS0_15eProcessorStateEj
libffado.so.2:_ZN9Streaming15StreamProcessor13getBufferFillEv
libffado.so.2:_ZN9Streaming15StreamProcessor14handleBusResetEv
libffado.so.2:_ZN9Streaming15StreamProcessor14packetsStoppedEv
libffado.so.2:_ZN9Streaming15StreamProcessor14stopDryRunningEl
libffado.so.2:_ZN9Streaming15StreamProcessor15getTimeAtPeriodEv
libffado.so.2:_ZN9Streaming15StreamProcessor15printBufferInfoEv
libffado.so.2:_ZN9Streaming15StreamProcessor15setDllBandwidthEf
libffado.so.2:_ZN9Streaming15StreamProcessor15setVerboseLevelEi
libffado.so.2:_ZN9Streaming15StreamProcessor15setupDataBufferEv
libffado.so.2:_ZN9Streaming15StreamProcessor15startDryRunningEl
libffado.so.2:_ZN9Streaming15StreamProcessor15transferSilenceEj
libffado.so.2:_ZN9Streaming15StreamProcessor16canConsumePacketEv
libffado.so.2:_ZN9Streaming15StreamProcessor16canConsumePeriodEv
libffado.so.2:_ZN9Streaming15StreamProcessor16canProducePacketEv
libffado.so.2:_ZN9Streaming15StreamProcessor16canProducePeriodEv
libffado.so.2:_ZN9Streaming15StreamProcessor16getTicksPerFrameEv
libffado.so.2:_ZN9Streaming15StreamProcessor16handleBusResetDoEv
libffado.so.2:_ZN9Streaming15StreamProcessor16putSilenceFramesEjl
libffado.so.2:_ZN9Streaming15StreamProcessor16setTicksPerFrameEf
libffado.so.2:_ZN9Streaming15StreamProcessor17periodSizeChangedEj
libffado.so.2:_ZN9Streaming15StreamProcessor18getMaxFrameLatencyEv
libffado.so.2:_ZN9Streaming15StreamProcessor19getPacketsPerPeriodEv
libffado.so.2:_ZN9Streaming15StreamProcessor19provideSilenceBlockEjj
libffado.so.2:_ZN9Streaming15StreamProcessor19scheduleStopRunningEl
libffado.so.2:_ZN9Streaming15StreamProcessor20getExtraBufferFramesEv
libffado.so.2:_ZN9Streaming15StreamProcessor20provideSilenceToPortEPNS_4PortEjj
libffado.so.2:_ZN9Streaming15StreamProcessor20scheduleStartRunningEl
libffado.so.2:_ZN9Streaming15StreamProcessor20setExtraBufferFramesEj
libffado.so.2:_ZN9Streaming15StreamProcessor21doWaitForStreamEnableEv
libffado.so.2:_ZN9Streaming15StreamProcessor22doWaitForRunningStreamEv
libffado.so.2:_ZN9Streaming15StreamProcessor22doWaitForStreamDisableEv
libffado.so.2:_ZN9Streaming15StreamProcessor22getBufferHeadTimestampEPdPi
libffado.so.2:_ZN9Streaming15StreamProcessor22getBufferTailTimestampEPdPi
libffado.so.2:_ZN9Streaming15StreamProcessor22scheduleStopDryRunningEl
libffado.so.2:_ZN9Streaming15StreamProcessor22setBufferHeadTimestampEd
libffado.so.2:_ZN9Streaming15StreamProcessor22setBufferTailTimestampEd
libffado.so.2:_ZN9Streaming15StreamProcessor23canClientTransferFramesEj
libffado.so.2:_ZN9Streaming15StreamProcessor23getNominalPacketsNeededEj
libffado.so.2:_ZN9Streaming15StreamProcessor23scheduleStartDryRunningEl
libffado.so.2:_ZN9Streaming15StreamProcessor23scheduleStateTransitionENS0_15eProcessorStateEm
libffado.so.2:_ZN9Streaming15StreamProcessor25getNbPacketsIsoXmitBufferEv
libffado.so.2:_ZN9Streaming15StreamProcessor4initEv
libffado.so.2:_ZN9Streaming15StreamProcessor6doStopEv
libffado.so.2:_ZN9Streaming15StreamProcessor7prepareEv
libffado.so.2:_ZN9Streaming15StreamProcessor8dumpInfoEv
libffado.so.2:_ZN9Streaming15StreamProcessor9doRunningEv
libffado.so.2:_ZN9Streaming15StreamProcessor9getFramesEjl
libffado.so.2:_ZN9Streaming15StreamProcessor9getPacketEPhPjS1_S1_jjjj
libffado.so.2:_ZN9Streaming15StreamProcessor9putFramesEjl
libffado.so.2:_ZN9Streaming15StreamProcessor9putPacketEPhjhhhjj
libffado.so.2:_ZN9Streaming15StreamProcessorC1ER11FFADODeviceNS0_14eProcessorTypeE
libffado.so.2:_ZN9Streaming15StreamProcessorC2ER11FFADODeviceNS0_14eProcessorTypeE
libffado.so.2:_ZN9Streaming15StreamProcessorD0Ev
libffado.so.2:_ZN9Streaming15StreamProcessorD1Ev
libffado.so.2:_ZN9Streaming15StreamProcessorD2Ev
libffado.so.2:_ZN9Streaming16StreamStatistics4markEi
libffado.so.2:_ZN9Streaming16StreamStatistics5resetEv
libffado.so.2:_ZN9Streaming16StreamStatistics6signalEj
libffado.so.2:_ZN9Streaming16StreamStatistics8dumpInfoEv
libffado.so.2:_ZN9Streaming16StreamStatisticsC1Ev
libffado.so.2:_ZN9Streaming16StreamStatisticsC2Ev
libffado.so.2:_ZN9Streaming22StreamProcessorManager10handleXrunEv
libffado.so.2:_ZN9Streaming22StreamProcessorManager12getPortCountENS_4Port10E_PortTypeENS1_11E_DirectionE
libffado.so.2:_ZN9Streaming22StreamProcessorManager12getPortCountENS_4Port11E_DirectionE
libffado.so.2:_ZN9Streaming22StreamProcessorManager12syncStartAllEv
libffado.so.2:_ZN9Streaming22StreamProcessorManager13setPeriodSizeEj
libffado.so.2:_ZN9Streaming22StreamProcessorManager13setSyncSourceEPNS_15StreamProcessorE
libffado.so.2:_ZN9Streaming22StreamProcessorManager13waitForPeriodEv
libffado.so.2:_ZN9Streaming22StreamProcessorManager14getPortByIndexEiNS_4Port11E_DirectionE
libffado.so.2:_ZN9Streaming22StreamProcessorManager14signalActivityEv
libffado.so.2:_ZN9Streaming22StreamProcessorManager15setVerboseLevelEi
libffado.so.2:_ZN9Streaming22StreamProcessorManager15startDryRunningEv
libffado.so.2:_ZN9Streaming22StreamProcessorManager15transferSilenceENS_15StreamProcessor14eProcessorTypeE
libffado.so.2:_ZN9Streaming22StreamProcessorManager15transferSilenceEv
libffado.so.2:_ZN9Streaming22StreamProcessorManager15waitForActivityEv
libffado.so.2:_ZN9Streaming22StreamProcessorManager17registerProcessorEPNS_15StreamProcessorE
libffado.so.2:_ZN9Streaming22StreamProcessorManager17streamingParamsOkEiii
libffado.so.2:_ZN9Streaming22StreamProcessorManager17updateShadowListsEv
libffado.so.2:_ZN9Streaming22StreamProcessorManager19setThreadParametersEbi
libffado.so.2:_ZN9Streaming22StreamProcessorManager19unregisterProcessorEPNS_15StreamProcessorE
libffado.so.2:_ZN9Streaming22StreamProcessorManager20alignReceivedStreamsEv
libffado.so.2:_ZN9Streaming22StreamProcessorManager4stopEv
libffado.so.2:_ZN9Streaming22StreamProcessorManager5startEv
libffado.so.2:_ZN9Streaming22StreamProcessorManager7prepareEv
libffado.so.2:_ZN9Streaming22StreamProcessorManager8dumpInfoEv
libffado.so.2:_ZN9Streaming22StreamProcessorManager8transferENS_15StreamProcessor14eProcessorTypeE
libffado.so.2:_ZN9Streaming22StreamProcessorManager8transferEv
libffado.so.2:_ZN9Streaming22StreamProcessorManagerC1ER13DeviceManager
libffado.so.2:_ZN9Streaming22StreamProcessorManagerC1ER13DeviceManagerjjj
libffado.so.2:_ZN9Streaming22StreamProcessorManagerC2ER13DeviceManager
libffado.so.2:_ZN9Streaming22StreamProcessorManagerC2ER13DeviceManagerjjj
libffado.so.2:_ZN9Streaming22StreamProcessorManagerD0Ev
libffado.so.2:_ZN9Streaming22StreamProcessorManagerD1Ev
libffado.so.2:_ZN9Streaming22StreamProcessorManagerD2Ev
libffado.so.2:_ZN9Streaming25RmeReceiveStreamProcessor12prepareChildEv
libffado.so.2:_ZN9Streaming25RmeReceiveStreamProcessor16getMaxPacketSizeEv
libffado.so.2:_ZN9Streaming25RmeReceiveStreamProcessor16processReadBlockEPcjj
libffado.so.2:_ZN9Streaming25RmeReceiveStreamProcessor17processPacketDataEPhj
libffado.so.2:_ZN9Streaming25RmeReceiveStreamProcessor19processPacketHeaderEPhjhhj
libffado.so.2:_ZN9Streaming25RmeReceiveStreamProcessor21decodeRmeEventsToPortEPNS_12RmeAudioPortEPjjj
libffado.so.2:_ZN9Streaming25RmeReceiveStreamProcessor25decodeRmeMidiEventsToPortEPNS_11RmeMidiPortEPjjj
libffado.so.2:_ZN9Streaming25RmeReceiveStreamProcessor25getNominalFramesPerPacketEv
libffado.so.2:_ZN9Streaming25RmeReceiveStreamProcessorC1ER11FFADODevicejj
libffado.so.2:_ZN9Streaming25RmeReceiveStreamProcessorC2ER11FFADODevicejj
libffado.so.2:_ZN9Streaming26MotuReceiveStreamProcessor12prepareChildEv
libffado.so.2:_ZN9Streaming26MotuReceiveStreamProcessor16getMaxPacketSizeEv
libffado.so.2:_ZN9Streaming26MotuReceiveStreamProcessor16processReadBlockEPcjj
libffado.so.2:_ZN9Streaming26MotuReceiveStreamProcessor17processPacketDataEPhj
libffado.so.2:_ZN9Streaming26MotuReceiveStreamProcessor19processPacketHeaderEPhjhhj
libffado.so.2:_ZN9Streaming26MotuReceiveStreamProcessor20decodeMotuCtrlEventsEPcj
libffado.so.2:_ZN9Streaming26MotuReceiveStreamProcessor22decodeMotuEventsToPortEPNS_13MotuAudioPortEPjjj
libffado.so.2:_ZN9Streaming26MotuReceiveStreamProcessor25getNominalFramesPerPacketEv
libffado.so.2:_ZN9Streaming26MotuReceiveStreamProcessor26decodeMotuMidiEventsToPortEPNS_12MotuMidiPortEPjjj
libffado.so.2:_ZN9Streaming26MotuReceiveStreamProcessorC1ER11FFADODevicej
libffado.so.2:_ZN9Streaming26MotuReceiveStreamProcessorC2ER11FFADODevicej
libffado.so.2:_ZN9Streaming26RmeTransmitStreamProcessor12prepareChildEv
libffado.so.2:_ZN9Streaming26RmeTransmitStreamProcessor16getMaxPacketSizeEv
libffado.so.2:_ZN9Streaming26RmeTransmitStreamProcessor17processWriteBlockEPcjj
libffado.so.2:_ZN9Streaming26RmeTransmitStreamProcessor17resetForStreamingEv
libffado.so.2:_ZN9Streaming26RmeTransmitStreamProcessor18generatePacketDataEPhPj
libffado.so.2:_ZN9Streaming26RmeTransmitStreamProcessor20fillDataPacketHeaderEPjS1_j
libffado.so.2:_ZN9Streaming26RmeTransmitStreamProcessor20generatePacketHeaderEPhPjS1_S1_j
libffado.so.2:_ZN9Streaming26RmeTransmitStreamProcessor20transmitSilenceBlockEPcjj
libffado.so.2:_ZN9Streaming26RmeTransmitStreamProcessor21encodePortToRmeEventsEPNS_12RmeAudioPortEPjjj
libffado.so.2:_ZN9Streaming26RmeTransmitStreamProcessor22fillNoDataPacketHeaderEPjS1_
libffado.so.2:_ZN9Streaming26RmeTransmitStreamProcessor23generateEmptyPacketDataEPhPj
libffado.so.2:_ZN9Streaming26RmeTransmitStreamProcessor24generateSilentPacketDataEPhPj
libffado.so.2:_ZN9Streaming26RmeTransmitStreamProcessor25encodePortToRmeMidiEventsEPNS_11RmeMidiPortEPjjj
libffado.so.2:_ZN9Streaming26RmeTransmitStreamProcessor25generateEmptyPacketHeaderEPhPjS1_S1_j
libffado.so.2:_ZN9Streaming26RmeTransmitStreamProcessor25getNominalFramesPerPacketEv
libffado.so.2:_ZN9Streaming26RmeTransmitStreamProcessor26generateSilentPacketHeaderEPhPjS1_S1_j
libffado.so.2:_ZN9Streaming26RmeTransmitStreamProcessor28encodeSilencePortToRmeEventsEPNS_12RmeAudioPortEPjjj
libffado.so.2:_ZN9Streaming26RmeTransmitStreamProcessor32encodeSilencePortToRmeMidiEventsEPNS_11RmeMidiPortEPjjj
libffado.so.2:_ZN9Streaming26RmeTransmitStreamProcessorC1ER11FFADODevicejj
libffado.so.2:_ZN9Streaming26RmeTransmitStreamProcessorC2ER11FFADODevicejj
libffado.so.2:_ZN9Streaming27AmdtpReceiveStreamProcessor12prepareChildEv
libffado.so.2:_ZN9Streaming27AmdtpReceiveStreamProcessor13initPortCacheEv
libffado.so.2:_ZN9Streaming27AmdtpReceiveStreamProcessor14getSytIntervalEv
libffado.so.2:_ZN9Streaming27AmdtpReceiveStreamProcessor15decodeMidiPortsEPjjj
libffado.so.2:_ZN9Streaming27AmdtpReceiveStreamProcessor15updatePortCacheEv
libffado.so.2:_ZN9Streaming27AmdtpReceiveStreamProcessor16processReadBlockEPcjj
libffado.so.2:_ZN9Streaming27AmdtpReceiveStreamProcessor17processPacketDataEPhj
libffado.so.2:_ZN9Streaming27AmdtpReceiveStreamProcessor19processPacketHeaderEPhjhhj
libffado.so.2:_ZN9Streaming27AmdtpReceiveStreamProcessor21decodeAudioPortsFloatEPjjj
libffado.so.2:_ZN9Streaming27AmdtpReceiveStreamProcessor21decodeAudioPortsInt24EPjjj
libffado.so.2:_ZN9Streaming27AmdtpReceiveStreamProcessorC1ER11FFADODevicei
libffado.so.2:_ZN9Streaming27AmdtpReceiveStreamProcessorC2ER11FFADODevicei
libffado.so.2:_ZN9Streaming27MotuTransmitStreamProcessor12prepareChildEv
libffado.so.2:_ZN9Streaming27MotuTransmitStreamProcessor16getMaxPacketSizeEv
libffado.so.2:_ZN9Streaming27MotuTransmitStreamProcessor17processWriteBlockEPcjj
libffado.so.2:_ZN9Streaming27MotuTransmitStreamProcessor18generatePacketDataEPhPj
libffado.so.2:_ZN9Streaming27MotuTransmitStreamProcessor20fillDataPacketHeaderEPjS1_j
libffado.so.2:_ZN9Streaming27MotuTransmitStreamProcessor20generatePacketHeaderEPhPjS1_S1_j
libffado.so.2:_ZN9Streaming27MotuTransmitStreamProcessor20transmitSilenceBlockEPcjj
libffado.so.2:_ZN9Streaming27MotuTransmitStreamProcessor22encodePortToMotuEventsEPNS_13MotuAudioPortEPjjj
libffado.so.2:_ZN9Streaming27MotuTransmitStreamProcessor22fillNoDataPacketHeaderEPjS1_
libffado.so.2:_ZN9Streaming27MotuTransmitStreamProcessor23generateEmptyPacketDataEPhPj
libffado.so.2:_ZN9Streaming27MotuTransmitStreamProcessor24generateSilentPacketDataEPhPj
libffado.so.2:_ZN9Streaming27MotuTransmitStreamProcessor25generateEmptyPacketHeaderEPhPjS1_S1_j
libffado.so.2:_ZN9Streaming27MotuTransmitStreamProcessor25getNominalFramesPerPacketEv
libffado.so.2:_ZN9Streaming27MotuTransmitStreamProcessor26encodePortToMotuMidiEventsEPNS_12MotuMidiPortEPjjj
libffado.so.2:_ZN9Streaming27MotuTransmitStreamProcessor26generateSilentPacketHeaderEPhPjS1_S1_j
libffado.so.2:_ZN9Streaming27MotuTransmitStreamProcessor29encodeSilencePortToMotuEventsEPNS_13MotuAudioPortEPjjj
libffado.so.2:_ZN9Streaming27MotuTransmitStreamProcessor33encodeSilencePortToMotuMidiEventsEPNS_12MotuMidiPortEPjjj
libffado.so.2:_ZN9Streaming27MotuTransmitStreamProcessorC1ER11FFADODevicej
libffado.so.2:_ZN9Streaming27MotuTransmitStreamProcessorC2ER11FFADODevicej
libffado.so.2:_ZN9Streaming28AmdtpTransmitStreamProcessor12prepareChildEv
libffado.so.2:_ZN9Streaming28AmdtpTransmitStreamProcessor13initPortCacheEv
libffado.so.2:_ZN9Streaming28AmdtpTransmitStreamProcessor14getSytIntervalEv
libffado.so.2:_ZN9Streaming28AmdtpTransmitStreamProcessor15encodeMidiPortsEPjjj
libffado.so.2:_ZN9Streaming28AmdtpTransmitStreamProcessor15updatePortCacheEv
libffado.so.2:_ZN9Streaming28AmdtpTransmitStreamProcessor17processWriteBlockEPcjj
libffado.so.2:_ZN9Streaming28AmdtpTransmitStreamProcessor18generatePacketDataEPhPj
libffado.so.2:_ZN9Streaming28AmdtpTransmitStreamProcessor20fillDataPacketHeaderEP15iec61883_packetPjj
libffado.so.2:_ZN9Streaming28AmdtpTransmitStreamProcessor20generatePacketHeaderEPhPjS1_S1_j
libffado.so.2:_ZN9Streaming28AmdtpTransmitStreamProcessor20transmitSilenceBlockEPcjj
libffado.so.2:_ZN9Streaming28AmdtpTransmitStreamProcessor21encodeAudioPortsFloatEPjjj
libffado.so.2:_ZN9Streaming28AmdtpTransmitStreamProcessor21encodeAudioPortsInt24EPjjj
libffado.so.2:_ZN9Streaming28AmdtpTransmitStreamProcessor22encodeMidiPortsSilenceEPjjj
libffado.so.2:_ZN9Streaming28AmdtpTransmitStreamProcessor22fillNoDataPacketHeaderEP15iec61883_packetPj
libffado.so.2:_ZN9Streaming28AmdtpTransmitStreamProcessor23encodeAudioPortsSilenceEPjjj
libffado.so.2:_ZN9Streaming28AmdtpTransmitStreamProcessor23generateEmptyPacketDataEPhPj
libffado.so.2:_ZN9Streaming28AmdtpTransmitStreamProcessor24generateSilentPacketDataEPhPj
libffado.so.2:_ZN9Streaming28AmdtpTransmitStreamProcessor25generateEmptyPacketHeaderEPhPjS1_S1_j
libffado.so.2:_ZN9Streaming28AmdtpTransmitStreamProcessor26generateSilentPacketHeaderEPhPjS1_S1_j
libffado.so.2:_ZN9Streaming28AmdtpTransmitStreamProcessor6getFDFEv
libffado.so.2:_ZN9Streaming28AmdtpTransmitStreamProcessorC1ER11FFADODevicei
libffado.so.2:_ZN9Streaming28AmdtpTransmitStreamProcessorC2ER11FFADODevicei
libffado.so.2:_ZN9Streaming33AmdtpOxfordReceiveStreamProcessor12prepareChildEv
libffado.so.2:_ZN9Streaming33AmdtpOxfordReceiveStreamProcessor17processPacketDataEPhj
libffado.so.2:_ZN9Streaming33AmdtpOxfordReceiveStreamProcessor19processPacketHeaderEPhjhhj
libffado.so.2:_ZN9Streaming33AmdtpOxfordReceiveStreamProcessorC1ER11FFADODevicei
libffado.so.2:_ZN9Streaming33AmdtpOxfordReceiveStreamProcessorC2ER11FFADODevicei
libffado.so.2:_ZN9Streaming33AmdtpOxfordReceiveStreamProcessorD0Ev
libffado.so.2:_ZN9Streaming33AmdtpOxfordReceiveStreamProcessorD1Ev
libffado.so.2:_ZN9Streaming33AmdtpOxfordReceiveStreamProcessorD2Ev
libffado.so.2:_ZN9Streaming4Port12getEventSizeEv
libffado.so.2:_ZN9Streaming4Port13setBufferSizeEj
libffado.so.2:_ZN9Streaming4Port15getPortTypeNameB5cxx11Ev
libffado.so.2:_ZN9Streaming4Port15setVerboseLevelEi
libffado.so.2:_ZN9Streaming4Port16getBufferAddressEv
libffado.so.2:_ZN9Streaming4Port16setBufferAddressEPv
libffado.so.2:_ZN9Streaming4Port4initEv
libffado.so.2:_ZN9Streaming4Port4showEv
libffado.so.2:_ZN9Streaming4Port5resetEv
libffado.so.2:_ZN9Streaming4Port6enableEv
libffado.so.2:_ZN9Streaming4Port7disableEv
libffado.so.2:_ZN9Streaming4Port7setNameENSt7__cxx1112basic_stringIcSt11char_traitsIcESaIcEEE
libffado.so.2:_ZN9Streaming4PortC1ERNS_11PortManagerENSt7__cxx1112basic_stringIcSt11char_traitsIcESaIcEEENS0_10E_PortTypeENS0_11E_DirectionE
libffado.so.2:_ZN9Streaming4PortC2ERNS_11PortManagerENSt7__cxx1112basic_stringIcSt11char_traitsIcESaIcEEENS0_10E_PortTypeENS0_11E_DirectionE
libffado.so.2:_ZN9Streaming4PortD0Ev
libffado.so.2:_ZN9Streaming4PortD1Ev
libffado.so.2:_ZN9Streaming4PortD2Ev
libffado.so.2:_ZNK10GenericAVC6Device9serializeENSt7__cxx1112basic_stringIcSt11char_traitsIcESaIcEEERN4Util11IOSerializeE
libffado.so.2:_ZNK11DebugModule10printShortEsPKcz
libffado.so.2:_ZNK11DebugModule14getPreSequenceEs
libffado.so.2:_ZNK11DebugModule15getPostSequenceEs
libffado.so.2:_ZNK11DebugModule5printEsPKcS1_jS1_z
libffado.so.2:_ZNK11FFADODevice12getConfigRomEv
libffado.so.2:_ZNK15Ieee1394Service10ARMHandler16printBufferBytesEjmPh
libffado.so.2:_ZNK15Ieee1394Service11printBufferEjmPj
libffado.so.2:_ZNK15Ieee1394Service16printBufferBytesEjmPh
libffado.so.2:_ZNK3AVC10AVCCommand12showFcpFrameEPKht
libffado.so.2:_ZNK3AVC11PlugAddress5cloneEv
libffado.so.2:_ZNK3AVC11PlugManager14getPlugsByTypeENS_12ESubunitTypeEhhhNS_4Plug16EPlugAddressTypeENS2_14EPlugDirectionENS2_9EPlugTypeE
libffado.so.2:_ZNK3AVC11PlugManager7getPlugENS_12ESubunitTypeEhhhNS_4Plug16EPlugAddressTypeENS2_14EPlugDirectionEh
libffado.so.2:_ZNK3AVC11PlugManager7getPlugEi
libffado.so.2:_ZNK3AVC11PlugManager9serializeENSt7__cxx1112basic_stringIcSt11char_traitsIcESaIcEEERN4Util11IOSerializeE
libffado.so.2:_ZNK3AVC11PlugManager9showPlugsEv
libffado.so.2:_ZNK3AVC12AVCInfoBlock5cloneEv
libffado.so.2:_ZNK3AVC12SubunitMusic14serializeChildENSt7__cxx1112basic_stringIcSt11char_traitsIcESaIcEEERN4Util11IOSerializeE
libffado.so.2:_ZNK3AVC13AVCDescriptor12getSubunitIdEv
libffado.so.2:_ZNK3AVC13AVCDescriptor14getSubunitTypeEv
libffado.so.2:_ZNK3AVC13AVCDescriptor16printBufferBytesEjmPh
libffado.so.2:_ZNK3AVC13AVCDescriptor5cloneEv
libffado.so.2:_ZNK3AVC14PlugConnection9serializeENSt7__cxx1112basic_stringIcSt11char_traitsIcESaIcEEERN4Util11IOSerializeE
libffado.so.2:_ZNK3AVC15UnitPlugAddress5cloneEv
libffado.so.2:_ZNK3AVC16FunctionBlockCmd5cloneEv
libffado.so.2:_ZNK3AVC16StreamFormatInfo5cloneEv
libffado.so.2:_ZNK3AVC17FormatInformation5cloneEv
libffado.so.2:_ZNK3AVC17SignalUnitAddress5cloneEv
libffado.so.2:_ZNK3AVC18FunctionBlockCodec5cloneEv
libffado.so.2:_ZNK3AVC18SubunitPlugAddress5cloneEv
libffado.so.2:_ZNK3AVC20FunctionBlockFeature5cloneEv
libffado.so.2:_ZNK3AVC20SignalSubunitAddress5cloneEv
libffado.so.2:_ZNK3AVC20UndefinedPlugAddress5cloneEv
libffado.so.2:_ZNK3AVC21FunctionBlockSelector5cloneEv
libffado.so.2:_ZNK3AVC22AVCDescriptorSpecifier5cloneEv
libffado.so.2:_ZNK3AVC23FunctionBlockProcessing5cloneEv
libffado.so.2:_ZNK3AVC23PlugAddressSpecificData5cloneEv
libffado.so.2:_ZNK3AVC24ExtendedPlugInfoInfoType5cloneEv
libffado.so.2:_ZNK3AVC24FunctionBlockPlugAddress5cloneEv
libffado.so.2:_ZNK3AVC26FunctionBlockFeatureVolume5cloneEv
libffado.so.2:_ZNK3AVC27ExtendedSubunitInfoPageData5cloneEv
libffado.so.2:_ZNK3AVC28FormatInformationStreamsSync5cloneEv
libffado.so.2:_ZNK3AVC28FunctionBlockProcessingMixer5cloneEv
libffado.so.2:_ZNK3AVC29FunctionBlockFeatureLRBalance5cloneEv
libffado.so.2:_ZNK3AVC31UnitPlugSpecificDataPlugAddress5cloneEv
libffado.so.2:_ZNK3AVC32FormatInformationStreamsCompound5cloneEv
libffado.so.2:_ZNK3AVC34SubunitPlugSpecificDataPlugAddress5cloneEv
libffado.so.2:_ZNK3AVC36ExtendedPlugInfoPlugNameSpecificData5cloneEv
libffado.so.2:_ZNK3AVC36ExtendedPlugInfoPlugTypeSpecificData5cloneEv
libffado.so.2:_ZNK3AVC36FunctionBlockProcessingEnhancedMixer5cloneEv
libffado.so.2:_ZNK3AVC36UndefinedPlugSpecificDataPlugAddress5cloneEv
libffado.so.2:_ZNK3AVC37ExtendedPlugInfoPlugInputSpecificData5cloneEv
libffado.so.2:_ZNK3AVC38ExtendedPlugInfoPlugOutputSpecificData5cloneEv
libffado.so.2:_ZNK3AVC39ExtendedPlugInfoClusterInfoSpecificData5cloneEv
libffado.so.2:_ZNK3AVC40FunctionBlockPlugSpecificDataPlugAddress5cloneEv
libffado.so.2:_ZNK3AVC43ExtendedPlugInfoPlugChannelNameSpecificData5cloneEv
libffado.so.2:_ZNK3AVC47ExtendedPlugInfoPlugChannelPositionSpecificData5cloneEv
libffado.so.2:_ZNK3AVC48ExtendedPlugInfoPlugNumberOfChannelsSpecificData5cloneEv
libffado.so.2:_ZNK3AVC4Plug12getSubunitIdEv
libffado.so.2:_ZNK3AVC4Plug13getSampleRateEv
libffado.so.2:_ZNK3AVC4Plug14getNrOfStreamsEv
libffado.so.2:_ZNK3AVC4Plug14getSubunitTypeEv
libffado.so.2:_ZNK3AVC4Plug15getNrOfChannelsEv
libffado.so.2:_ZNK3AVC4Plug15toggleDirectionENS0_14EPlugDirectionE
libffado.so.2:_ZNK3AVC4Plug20serializeFormatInfosENSt7__cxx1112basic_stringIcSt11char_traitsIcESaIcEEERN4Util11IOSerializeE
libffado.so.2:_ZNK3AVC4Plug21getClusterInfoByIndexEi
libffado.so.2:_ZNK3AVC4Plug21serializeChannelInfosENSt7__cxx1112basic_stringIcSt11char_traitsIcESaIcEEERN4Util11IOSerializeERKNS0_11ClusterInfoE
libffado.so.2:_ZNK3AVC4Plug21serializeClusterInfosENSt7__cxx1112basic_stringIcSt11char_traitsIcESaIcEEERN4Util11IOSerializeE
libffado.so.2:_ZNK3AVC4Plug8showPlugEv
libffado.so.2:_ZNK3AVC4Plug9serializeENSt7__cxx1112basic_stringIcSt11char_traitsIcESaIcEEERN4Util11IOSerializeE
libffado.so.2:_ZNK3AVC4Unit10getSubunitEhh
libffado.so.2:_ZNK3AVC4Unit15getNrOfSubunitsEh
libffado.so.2:_ZNK3AVC4Unit17getPlugConnectionERNS_4PlugE
libffado.so.2:_ZNK3AVC4Unit23serializeSyncInfoVectorENSt7__cxx1112basic_stringIcSt11char_traitsIcESaIcEEERN4Util11IOSerializeERKSt6vectorINS0_8SyncInfoESaISB_EE
libffado.so.2:_ZNK3AVC4Unit9serializeENSt7__cxx1112basic_stringIcSt11char_traitsIcESaIcEEERN4Util11IOSerializeE
libffado.so.2:_ZNK3AVC4Unit9showPlugsERSt6vectorIPNS_4PlugESaIS3_EE
libffado.so.2:_ZNK3AVC7Subunit9serializeENSt7__cxx1112basic_stringIcSt11char_traitsIcESaIcEEERN4Util11IOSerializeE
libffado.so.2:_ZNK4Util13Configuration13convertDriverERKNSt7__cxx1112basic_stringIcSt11char_traitsIcESaIcEEE
libffado.so.2:_ZNK4Util13Configuration16VendorModelEntryeqERKS1_
libffado.so.2:_ZNK4Util15OptionContainer16serializeOptionsENSt7__cxx1112basic_stringIcSt11char_traitsIcESaIcEEERNS_11IOSerializeE
libffado.so.2:_ZNK4Util15OptionContainer6Option9serializeENSt7__cxx1112basic_stringIcSt11char_traitsIcESaIcEEERNS_11IOSerializeE
libffado.so.2:_ZNK5BeBoB12SubunitAudio14serializeChildENSt7__cxx1112basic_stringIcSt11char_traitsIcESaIcEEERN4Util11IOSerializeE
libffado.so.2:_ZNK5BeBoB12SubunitMusic14serializeChildENSt7__cxx1112basic_stringIcSt11char_traitsIcESaIcEEERN4Util11IOSerializeE
libffado.so.2:_ZNK5BeBoB13FunctionBlock9serializeENSt7__cxx1112basic_stringIcSt11char_traitsIcESaIcEEERN4Util11IOSerializeE
libffado.so.2:_ZNK5BeBoB18FunctionBlockCodec14serializeChildENSt7__cxx1112basic_stringIcSt11char_traitsIcESaIcEEERN4Util11IOSerializeE
libffado.so.2:_ZNK5BeBoB20FunctionBlockFeature14serializeChildENSt7__cxx1112basic_stringIcSt11char_traitsIcESaIcEEERN4Util11IOSerializeE
libffado.so.2:_ZNK5BeBoB21FunctionBlockSelector14serializeChildENSt7__cxx1112basic_stringIcSt11char_traitsIcESaIcEEERN4Util11IOSerializeE
libffado.so.2:_ZNK5BeBoB23FunctionBlockProcessing14serializeChildENSt7__cxx1112basic_stringIcSt11char_traitsIcESaIcEEERN4Util11IOSerializeE
libffado.so.2:_ZNK5BeBoB26FunctionBlockEnhancedMixer14serializeChildENSt7__cxx1112basic_stringIcSt11char_traitsIcESaIcEEERN4Util11IOSerializeE
libffado.so.2:_ZNK5BeBoB6Device9serializeENSt7__cxx1112basic_stringIcSt11char_traitsIcESaIcEEERN4Util11IOSerializeE
libffado.so.2:_ZNK9ConfigRom10getModelIdEv
libffado.so.2:_ZNK9ConfigRom11getVendorIdEv
libffado.so.2:_ZNK9ConfigRom12getModelNameB5cxx11Ev
libffado.so.2:_ZNK9ConfigRom13getGuidStringB5cxx11Ev
libffado.so.2:_ZNK9ConfigRom13getVendorNameB5cxx11Ev
libffado.so.2:_ZNK9ConfigRom14getUnitVersionEv
libffado.so.2:_ZNK9ConfigRom14printConfigRomEv
libffado.so.2:_ZNK9ConfigRom16getAsyMaxPayloadEv
libffado.so.2:_ZNK9ConfigRom18getUnitSpecifierIdEv
libffado.so.2:_ZNK9ConfigRom19printConfigRomDebugEv
libffado.so.2:_ZNK9ConfigRom7getGuidEv
libffado.so.2:_ZNK9ConfigRom9getNodeIdEv
libffado.so.2:_ZThn320_N10GenericAVC6Device11deserializeENSt7__cxx1112basic_stringIcSt11char_traitsIcESaIcEEERN4Util13IODeserializeE
libffado.so.2:_ZThn320_N10GenericAVC6Device15setVerboseLevelEi
libffado.so.2:_ZThn320_N10GenericAVC6Device8discoverEv
libffado.so.2:_ZThn320_N10GenericAVC6DeviceD0Ev
libffado.so.2:_ZThn320_N10GenericAVC6DeviceD1Ev
libffado.so.2:_ZThn320_N10GenericAVC7Stanton9ScsDevice8discoverEv
libffado.so.2:_ZThn320_N10GenericAVC7Stanton9ScsDeviceD0Ev
libffado.so.2:_ZThn320_N10GenericAVC7Stanton9ScsDeviceD1Ev
libffado.so.2:_ZThn320_N5BeBoB3ESI15QuataFireDeviceD0Ev
libffado.so.2:_ZThn320_N5BeBoB3ESI15QuataFireDeviceD1Ev
libffado.so.2:_ZThn320_N5BeBoB6Device10createPlugEPN3AVC4UnitEPNS1_7SubunitEhhNS1_4Plug16EPlugAddressTypeENS6_14EPlugDirectionEhi
libffado.so.2:_ZThn320_N5BeBoB6Device11deserializeENSt7__cxx1112basic_stringIcSt11char_traitsIcESaIcEEERN4Util13IODeserializeE
libffado.so.2:_ZThn320_N5BeBoB6Device13createSubunitERN3AVC4UnitENS1_12ESubunitTypeEh
libffado.so.2:_ZThn320_N5BeBoB6Device15setVerboseLevelEi
libffado.so.2:_ZThn320_N5BeBoB6Device17propagatePlugInfoEv
libffado.so.2:_ZThn320_N5BeBoB6Device8discoverEv
libffado.so.2:_ZThn320_N5BeBoB6DeviceD0Ev
libffado.so.2:_ZThn320_N5BeBoB6DeviceD1Ev
libffado.so.2:_ZThn320_N5BeBoB6Edirol16EdirolFa66DeviceD0Ev
libffado.so.2:_ZThn320_N5BeBoB6Edirol16EdirolFa66DeviceD1Ev
libffado.so.2:_ZThn320_N5BeBoB6Edirol17EdirolFa101DeviceD0Ev
libffado.so.2:_ZThn320_N5BeBoB6Edirol17EdirolFa101DeviceD1Ev
libffado.so.2:_ZThn320_N5BeBoB6MAudio6Normal6DeviceD0Ev
libffado.so.2:_ZThn320_N5BeBoB6MAudio6Normal6DeviceD1Ev
libffado.so.2:_ZThn320_N5BeBoB6MAudio7Special6Device8discoverEv
libffado.so.2:_ZThn320_N5BeBoB6Mackie15OnyxMixerDeviceD0Ev
libffado.so.2:_ZThn320_N5BeBoB6Mackie15OnyxMixerDeviceD1Ev
libffado.so.2:_ZThn320_N5BeBoB6Yamaha8GoDeviceD0Ev
libffado.so.2:_ZThn320_N5BeBoB6Yamaha8GoDeviceD1Ev
libffado.so.2:_ZThn320_N5BeBoB8Presonus11Inspire13946DeviceD0Ev
libffado.so.2:_ZThn320_N5BeBoB8Presonus11Inspire13946DeviceD1Ev
libffado.so.2:_ZThn320_N5BeBoB8Presonus7Firebox6DeviceD0Ev
libffado.so.2:_ZThn320_N5BeBoB8Presonus7Firebox6DeviceD1Ev
libffado.so.2:_ZThn320_N5BeBoB8Terratec13Phase88Device8discoverEv
libffado.so.2:_ZThn320_N5BeBoB8Terratec13Phase88DeviceD0Ev
libffado.so.2:_ZThn320_N5BeBoB8Terratec13Phase88DeviceD1Ev
libffado.so.2:_ZThn320_N5BeBoB9Focusrite13SaffireDevice15setVerboseLevelEi
libffado.so.2:_ZThn320_N5BeBoB9Focusrite15FocusriteDevice15setVerboseLevelEi
libffado.so.2:_ZThn320_N5BeBoB9Focusrite16SaffireProDevice15setVerboseLevelEi
libffado.so.2:_ZThn320_N5BeBoB9Focusrite16SaffireProDeviceD0Ev
libffado.so.2:_ZThn320_N5BeBoB9Focusrite16SaffireProDeviceD1Ev
libffado.so.2:_ZThn320_N6Oxford6Device8discoverEv
libffado.so.2:_ZThn320_N6Oxford6DeviceD0Ev
libffado.so.2:_ZThn320_N6Oxford6DeviceD1Ev
libffado.so.2:_ZThn320_N9FireWorks4ECHO9AudioFireD0Ev
libffado.so.2:_ZThn320_N9FireWorks4ECHO9AudioFireD1Ev
libffado.so.2:_ZThn320_N9FireWorks6Device8discoverEv
libffado.so.2:_ZThn320_N9FireWorks6DeviceD0Ev
libffado.so.2:_ZThn320_N9FireWorks6DeviceD1Ev
libffado.so.2:_ZThn320_NK10GenericAVC6Device9serializeENSt7__cxx1112basic_stringIcSt11char_traitsIcESaIcEEERN4Util11IOSerializeE
libffado.so.2:_ZThn320_NK5BeBoB6Device9serializeENSt7__cxx1112basic_stringIcSt11char_traitsIcESaIcEEERN4Util11IOSerializeE
libffado.so.2:_ZThn32_N10GenericAVC6Device15setVerboseLevelEi
libffado.so.2:_ZThn32_N10GenericAVC6DeviceD0Ev
libffado.so.2:_ZThn32_N10GenericAVC6DeviceD1Ev
libffado.so.2:_ZThn32_N10GenericAVC7Stanton9ScsDeviceD0Ev
libffado.so.2:_ZThn32_N10GenericAVC7Stanton9ScsDeviceD1Ev
libffado.so.2:_ZThn32_N11FFADODevice15setVerboseLevelEi
libffado.so.2:_ZThn32_N11FFADODevice7getNameB5cxx11Ev
libffado.so.2:_ZThn32_N11FFADODeviceD0Ev
libffado.so.2:_ZThn32_N11FFADODeviceD1Ev
libffado.so.2:_ZThn32_N13DeviceManager15setVerboseLevelEi
libffado.so.2:_ZThn32_N13DeviceManagerD0Ev
libffado.so.2:_ZThn32_N13DeviceManagerD1Ev
libffado.so.2:_ZThn32_N3Rme6DeviceD0Ev
libffado.so.2:_ZThn32_N3Rme6DeviceD1Ev
libffado.so.2:_ZThn32_N4Dice6DeviceD0Ev
libffado.so.2:_ZThn32_N4Dice6DeviceD1Ev
libffado.so.2:_ZThn32_N4Dice6Maudio11Profire2626D0Ev
libffado.so.2:_ZThn32_N4Dice6Maudio11Profire2626D1Ev
libffado.so.2:_ZThn32_N4Dice8Presonus14FirestudioTubeD0Ev
libffado.so.2:_ZThn32_N4Dice8Presonus14FirestudioTubeD1Ev
libffado.so.2:_ZThn32_N4Dice8Presonus16FirestudioMobileD0Ev
libffado.so.2:_ZThn32_N4Dice8Presonus16FirestudioMobileD1Ev
libffado.so.2:_ZThn32_N4Dice8Presonus17FirestudioProjectD0Ev
libffado.so.2:_ZThn32_N4Dice8Presonus17FirestudioProjectD1Ev
libffado.so.2:_ZThn32_N4Dice9Focusrite12SaffirePro14D0Ev
libffado.so.2:_ZThn32_N4Dice9Focusrite12SaffirePro14D1Ev
libffado.so.2:_ZThn32_N4Dice9Focusrite12SaffirePro24D0Ev
libffado.so.2:_ZThn32_N4Dice9Focusrite12SaffirePro24D1Ev
libffado.so.2:_ZThn32_N4Dice9Focusrite12SaffirePro26D0Ev
libffado.so.2:_ZThn32_N4Dice9Focusrite12SaffirePro26D1Ev
libffado.so.2:_ZThn32_N4Dice9Focusrite12SaffirePro40D0Ev
libffado.so.2:_ZThn32_N4Dice9Focusrite12SaffirePro40D1Ev
libffado.so.2:_ZThn32_N4Dice9Focusrite9Saffire56D0Ev
libffado.so.2:_ZThn32_N4Dice9Focusrite9Saffire56D1Ev
libffado.so.2:_ZThn32_N4Motu10MotuDeviceD0Ev
libffado.so.2:_ZThn32_N4Motu10MotuDeviceD1Ev
libffado.so.2:_ZThn32_N5BeBoB3ESI15QuataFireDeviceD0Ev
libffado.so.2:_ZThn32_N5BeBoB3ESI15QuataFireDeviceD1Ev
libffado.so.2:_ZThn32_N5BeBoB6Device15setVerboseLevelEi
libffado.so.2:_ZThn32_N5BeBoB6DeviceD0Ev
libffado.so.2:_ZThn32_N5BeBoB6DeviceD1Ev
libffado.so.2:_ZThn32_N5BeBoB6Edirol16EdirolFa66DeviceD0Ev
libffado.so.2:_ZThn32_N5BeBoB6Edirol16EdirolFa66DeviceD1Ev
libffado.so.2:_ZThn32_N5BeBoB6Edirol17EdirolFa101DeviceD0Ev
libffado.so.2:_ZThn32_N5BeBoB6Edirol17EdirolFa101DeviceD1Ev
libffado.so.2:_ZThn32_N5BeBoB6MAudio6Normal6DeviceD0Ev
libffado.so.2:_ZThn32_N5BeBoB6MAudio6Normal6DeviceD1Ev
libffado.so.2:_ZThn32_N5BeBoB6Mackie15OnyxMixerDeviceD0Ev
libffado.so.2:_ZThn32_N5BeBoB6Mackie15OnyxMixerDeviceD1Ev
libffado.so.2:_ZThn32_N5BeBoB6Yamaha8GoDeviceD0Ev
libffado.so.2:_ZThn32_N5BeBoB6Yamaha8GoDeviceD1Ev
libffado.so.2:_ZThn32_N5BeBoB8Presonus11Inspire13946DeviceD0Ev
libffado.so.2:_ZThn32_N5BeBoB8Presonus11Inspire13946DeviceD1Ev
libffado.so.2:_ZThn32_N5BeBoB8Presonus7Firebox6DeviceD0Ev
libffado.so.2:_ZThn32_N5BeBoB8Presonus7Firebox6DeviceD1Ev
libffado.so.2:_ZThn32_N5BeBoB8Terratec13Phase88DeviceD0Ev
libffado.so.2:_ZThn32_N5BeBoB8Terratec13Phase88DeviceD1Ev
libffado.so.2:_ZThn32_N5BeBoB9Focusrite13SaffireDevice15setVerboseLevelEi
libffado.so.2:_ZThn32_N5BeBoB9Focusrite15FocusriteDevice15setVerboseLevelEi
libffado.so.2:_ZThn32_N5BeBoB9Focusrite16SaffireProDevice15setVerboseLevelEi
libffado.so.2:_ZThn32_N5BeBoB9Focusrite16SaffireProDeviceD0Ev
libffado.so.2:_ZThn32_N5BeBoB9Focusrite16SaffireProDeviceD1Ev
libffado.so.2:_ZThn32_N6Oxford6DeviceD0Ev
libffado.so.2:_ZThn32_N6Oxford6DeviceD1Ev
libffado.so.2:_ZThn32_N9FireWorks4ECHO9AudioFireD0Ev
libffado.so.2:_ZThn32_N9FireWorks4ECHO9AudioFireD1Ev
libffado.so.2:_ZThn32_N9FireWorks6DeviceD0Ev
libffado.so.2:_ZThn32_N9FireWorks6DeviceD1Ev
libffado.so.2:_ZThn56_N9Streaming15StreamProcessorD0Ev
libffado.so.2:_ZThn56_N9Streaming15StreamProcessorD1Ev
libffado.so.2:_ZThn56_N9Streaming25RmeReceiveStreamProcessor16processReadBlockEPcjj
libffado.so.2:_ZThn56_N9Streaming26MotuReceiveStreamProcessor16processReadBlockEPcjj
libffado.so.2:_ZThn56_N9Streaming26RmeTransmitStreamProcessor17processWriteBlockEPcjj
libffado.so.2:_ZThn56_N9Streaming27AmdtpReceiveStreamProcessor16processReadBlockEPcjj
libffado.so.2:_ZThn56_N9Streaming27MotuTransmitStreamProcessor17processWriteBlockEPcjj
libffado.so.2:_ZThn56_N9Streaming28AmdtpTransmitStreamProcessor17processWriteBlockEPcjj
libffado.so.2:_ZThn56_N9Streaming33AmdtpOxfordReceiveStreamProcessorD0Ev
libffado.so.2:_ZThn56_N9Streaming33AmdtpOxfordReceiveStreamProcessorD1Ev
libffado.so.2:_ZThn64_N9Streaming15StreamProcessorD0Ev
libffado.so.2:_ZThn64_N9Streaming15StreamProcessorD1Ev
libffado.so.2:_ZThn64_N9Streaming33AmdtpOxfordReceiveStreamProcessorD0Ev
libffado.so.2:_ZThn64_N9Streaming33AmdtpOxfordReceiveStreamProcessorD1Ev
libffado.so.2:_csr1212_destroy_keyval
libffado.so.2:_csr1212_read_keyval
libffado.so.2:csr1212_associate_keyval
libffado.so.2:csr1212_attach_keyval_to_directory
libffado.so.2:csr1212_create_csr
libffado.so.2:csr1212_destroy_csr
libffado.so.2:csr1212_detach_keyval_from_directory
libffado.so.2:csr1212_disassociate_keyval
libffado.so.2:csr1212_fill_cache
libffado.so.2:csr1212_generate_csr_image
libffado.so.2:csr1212_generate_layout_order
libffado.so.2:csr1212_generate_positions
libffado.so.2:csr1212_init_local_csr
libffado.so.2:csr1212_new_csr_offset
libffado.so.2:csr1212_new_descriptor_leaf
libffado.so.2:csr1212_new_directory
libffado.so.2:csr1212_new_extended_immediate
libffado.so.2:csr1212_new_extended_leaf
libffado.so.2:csr1212_new_icon_descriptor_leaf
libffado.so.2:csr1212_new_immediate
libffado.so.2:csr1212_new_keyword_leaf
libffado.so.2:csr1212_new_leaf
libffado.so.2:csr1212_new_modifiable_descriptor_leaf
libffado.so.2:csr1212_new_string_descriptor_leaf
libffado.so.2:csr1212_new_textual_descriptor_leaf
libffado.so.2:csr1212_parse_csr
libffado.so.2:csr1212_parse_keyval
libffado.so.2:csr1212_read
libffado.so.2:ffado_get_api_version
libffado.so.2:ffado_get_version
libffado.so.2:ffado_ringbuffer_create
libffado.so.2:ffado_ringbuffer_free
libffado.so.2:ffado_ringbuffer_get_read_vector
libffado.so.2:ffado_ringbuffer_get_write_vector
libffado.so.2:ffado_ringbuffer_mlock
libffado.so.2:ffado_ringbuffer_peek
libffado.so.2:ffado_ringbuffer_read
libffado.so.2:ffado_ringbuffer_read_advance
libffado.so.2:ffado_ringbuffer_read_space
libffado.so.2:ffado_ringbuffer_reset
libffado.so.2:ffado_ringbuffer_write
libffado.so.2:ffado_ringbuffer_write_advance
libffado.so.2:ffado_ringbuffer_write_space
libffado.so.2:ffado_streaming_capture_stream_onoff
libffado.so.2:ffado_streaming_finish
libffado.so.2:ffado_streaming_get_audio_datatype
libffado.so.2:ffado_streaming_get_capture_stream_name
libffado.so.2:ffado_streaming_get_capture_stream_type
libffado.so.2:ffado_streaming_get_nb_capture_streams
libffado.so.2:ffado_streaming_get_nb_playback_streams
libffado.so.2:ffado_streaming_get_playback_stream_name
libffado.so.2:ffado_streaming_get_playback_stream_type
libffado.so.2:ffado_streaming_init
libffado.so.2:ffado_streaming_playback_stream_onoff
libffado.so.2:ffado_streaming_prepare
libffado.so.2:ffado_streaming_reset
libffado.so.2:ffado_streaming_set_audio_datatype
libffado.so.2:ffado_streaming_set_capture_stream_buffer
libffado.so.2:ffado_streaming_set_playback_stream_buffer
libffado.so.2:ffado_streaming_start
libffado.so.2:ffado_streaming_stop
libffado.so.2:ffado_streaming_transfer_buffers
libffado.so.2:ffado_streaming_transfer_capture_buffers
libffado.so.2:ffado_streaming_transfer_playback_buffers
libffado.so.2:ffado_streaming_wait
libffado.so.2:iec61883_cip_fill_header
libffado.so.2:iec61883_cip_fill_header_nodata
libffado.so.2:iec61883_cip_get_max_packet_size
libffado.so.2:iec61883_cip_init
libffado.so.2:iec61883_cip_set_transmission_mode
